MPASM 5.77  /HOME/SCOTT/MPLABXPROJECTS/BATTL   8-10-2018  22:42:13         PAGE  1


LOC  OBJECT CODE     LINE SOURCE TEXT
  VALUE

                      00001 ;*******************************************************************************
                      00002 ;                                                                              *
                      00003 ;    Microchip licenses this software to you solely for use with Microchip     *
                      00004 ;    products. The software is owned by Microchip and/or its licensors, and is *
                      00005 ;    protected under applicable copyright laws.  All rights reserved.          *
                      00006 ;                                                                              *
                      00007 ;    This software and any accompanying information is for suggestion only.    *
                      00008 ;    It shall not be deemed to modify Microchip?s standard warranty for its    *
                      00009 ;    products.  It is your responsibility to ensure that this software meets   *
                      00010 ;    your requirements.                                                        *
                      00011 ;                                                                              *
                      00012 ;    SOFTWARE IS PROVIDED "AS IS".  MICROCHIP AND ITS LICENSORS EXPRESSLY      *
                      00013 ;    DISCLAIM ANY WARRANTY OF ANY KIND, WHETHER EXPRESS OR IMPLIED, INCLUDING  *
                      00014 ;    BUT NOT LIMITED TO, THE IMPLIED WARRANTIES OF MERCHANTABILITY, FITNESS    *
                      00015 ;    FOR A PARTICULAR PURPOSE, OR NON-INFRINGEMENT. IN NO EVENT SHALL          *
                      00016 ;    MICROCHIP OR ITS LICENSORS BE LIABLE FOR ANY INCIDENTAL, SPECIAL,         *
                      00017 ;    INDIRECT OR CONSEQUENTIAL DAMAGES, LOST PROFITS OR LOST DATA, HARM TO     *
                      00018 ;    YOUR EQUIPMENT, COST OF PROCUREMENT OF SUBSTITUTE GOODS, TECHNOLOGY OR    *
                      00019 ;    SERVICES, ANY CLAIMS BY THIRD PARTIES (INCLUDING BUT NOT LIMITED TO ANY   *
                      00020 ;    DEFENSE THEREOF), ANY CLAIMS FOR INDEMNITY OR CONTRIBUTION, OR OTHER      *
                      00021 ;    SIMILAR COSTS.                                                            *
                      00022 ;                                                                              *
                      00023 ;    To the fullest extend allowed by law, Microchip and its licensors         *
                      00024 ;    liability shall not exceed the amount of fee, if any, that you have paid  *
                      00025 ;    directly to Microchip to use this software.                               *
                      00026 ;                                                                              *
                      00027 ;    MICROCHIP PROVIDES THIS SOFTWARE CONDITIONALLY UPON YOUR ACCEPTANCE OF    *
                      00028 ;    THESE TERMS.                                                              *
                      00029 ;                                                                              *
                      00030 ;*******************************************************************************
                      00031 ;                                                                              *
                      00032 ;    Filename:                                                                 *
                      00033 ;    Date:                                                                     *
                      00034 ;    File Version:                                                             *
                      00035 ;    Author:                                                                   *
                      00036 ;    Company:                                                                  *
                      00037 ;    Description:                                                              *
                      00038 ;                                                                              *
                      00039 ;*******************************************************************************
                      00040 ;                                                                              *
                      00041 ;    Notes: In the MPLAB X Help, refer to the MPASM Assembler documentation    *
                      00042 ;    for information on assembly instructions.                                 *
                      00043 ;                                                                              *
                      00044 ;*******************************************************************************
                      00045 ;                                                                              *
                      00046 ;    Known Issues: This template is designed for relocatable code.  As such,   *
                      00047 ;    build errors such as "Directive only allowed when generating an object    *
                      00048 ;    file" will result when the 'Build in Absolute Mode' checkbox is selected  *
                      00049 ;    in the project properties.  Designing code in absolute mode is            *
                      00050 ;    antiquated - use relocatable mode.                                        *
                      00051 ;                                                                              *
                      00052 ;*******************************************************************************
                      00053 ;                                                                              *
MPASM 5.77  /HOME/SCOTT/MPLABXPROJECTS/BATTL   8-10-2018  22:42:13         PAGE  2


LOC  OBJECT CODE     LINE SOURCE TEXT
  VALUE

                      00054 ;    Revision History:                                                         *
                      00055 ;                                                                              *
                      00056 ;*******************************************************************************
                      00057 
                      00058 
                      00059 
                      00060 ;*******************************************************************************
                      00061 ; Processor Inclusion
                      00062 ;
                      00063 ; TODO Step #1 Open the task list under Window > Tasks.  Include your
                      00064 ; device .inc file - e.g. #include <device_name>.inc.  Available
                      00065 ; include files are in C:\Program Files\Microchip\MPLABX\mpasmx
                      00066 ; assuming the default installation path for MPLAB X.  You may manually find
                      00067 ; the appropriate include file for your device here and include it, or
                      00068 ; simply copy the include generated by the configuration bits
                      00069 ; generator (see Step #2).
                      00070 ;
                      00071 ;*******************************************************************************
                      00072 
                      00073 ; TODO INSERT INCLUDE CODE HERE
                      00074 #include <p18f24k40.inc>
                      00001         LIST
                      00002 
                      00003 ;==========================================================================
                      00004 ; Build date : Nov 22 2017
                      00005 ;  MPASM PIC18F24K40 processor include
                      00006 ; 
                      00007 ;  (c) Copyright 1999-2017 Microchip Technology, All rights reserved
                      00008 ;==========================================================================
                      00009 
                      04150         LIST
                      00075     
                      00076 ;*******************************************************************************
                      00077 ;
                      00078 ; TODO Step #2 - Configuration Word Setup
                      00079 ;
                      00080 ; The 'CONFIG' directive is used to embed the configuration word within the
                      00081 ; .asm file. MPLAB X requires users to embed their configuration words
                      00082 ; into source code.  See the device datasheet for additional information
                      00083 ; on configuration word settings.  Device configuration bits descriptions
                      00084 ; are in C:\Program Files\Microchip\MPLABX\mpasmx\P<device_name>.inc
                      00085 ; (may change depending on your MPLAB X installation directory).
                      00086 ;
                      00087 ; MPLAB X has a feature which generates configuration bits source code.  Go to
                      00088 ; Window > PIC Memory Views > Configuration Bits.  Configure each field as
                      00089 ; needed and select 'Generate Source Code to Output'.  The resulting code which
                      00090 ; appears in the 'Output Window' > 'Config Bits Source' tab may be copied
                      00091 ; below.
                      00092 ;
                      00093 ;*******************************************************************************
                      00094 
                      00095 ; TODO INSERT CONFIG HERE
                      00096 ; CONFIG1L
MPASM 5.77  /HOME/SCOTT/MPLABXPROJECTS/BATTL   8-10-2018  22:42:13         PAGE  3


LOC  OBJECT CODE     LINE SOURCE TEXT
  VALUE

                      00097   CONFIG  FEXTOSC = OFF         ; External Oscillator mode Selection bits (EC (external clock) above 8 M
                            Hz; PFM set to high power)
                      00098   CONFIG  RSTOSC = HFINTOSC_64MHZ; Power-up default value for COSC bits (HFINTOSC with HFFRQ = 64 MHz an
                            d CDIV = 1:1)
                      00099 
                      00100 ; CONFIG1H
                      00101   CONFIG  CLKOUTEN = ON        ; Clock Out Enable bit (CLKOUT function is disabled)
                      00102   CONFIG  CSWEN = ON            ; Clock Switch Enable bit (Writing to NOSC and NDIV is allowed)
                      00103   CONFIG  FCMEN = ON            ; Fail-Safe Clock Monitor Enable bit (Fail-Safe Clock Monitor enabled)
                      00104 
                      00105 ; CONFIG2L
                      00106   CONFIG  MCLRE = EXTMCLR       ; Master Clear Enable bit (If LVP = 0, MCLR pin is MCLR; If LVP = 1, RE3
                             pin function is MCLR )
                      00107   CONFIG  PWRTE = OFF           ; Power-up Timer Enable bit (Power up timer disabled)
                      00108   CONFIG  LPBOREN = OFF         ; Low-power BOR enable bit (ULPBOR disabled)
                      00109   CONFIG  BOREN = SBORDIS       ; Brown-out Reset Enable bits (Brown-out Reset enabled , SBOREN bit is i
                            gnored)
                      00110 
                      00111 ; CONFIG2H
                      00112   CONFIG  BORV = VBOR_2P45      ; Brown Out Reset Voltage selection bits (Brown-out Reset Voltage (VBOR)
                             set to 2.45V)
                      00113   CONFIG  ZCD = OFF             ; ZCD Disable bit (ZCD disabled. ZCD can be enabled by setting the ZCDSE
                            N bit of ZCDCON)
                      00114   CONFIG  PPS1WAY = ON          ; PPSLOCK bit One-Way Set Enable bit (PPSLOCK bit can be cleared and set
                             only once; PPS registers remain locked after one clear/set cycle)
                      00115   CONFIG  STVREN = ON           ; Stack Full/Underflow Reset Enable bit (Stack full/underflow will cause
                             Reset)
                      00116   CONFIG  DEBUG = ON           ; Debugger Enable bit (Background debugger disabled)
                      00117   CONFIG  XINST = OFF           ; Extended Instruction Set Enable bit (Extended Instruction Set and Inde
                            xed Addressing Mode disabled)
                      00118 
                      00119 ; CONFIG3L
                      00120   CONFIG  WDTCPS = WDTCPS_31    ; WDT Period Select bits (Divider ratio 1:65536; software control of WDT
                            PS)
                      00121   CONFIG  WDTE = OFF             ; WDT operating mode (WDT enabled regardless of sleep)
                      00122 
                      00123 ; CONFIG3H
                      00124   CONFIG  WDTCWS = WDTCWS_7     ; WDT Window Select bits (window always open (100%); software control; k
                            eyed access not required)
                      00125   CONFIG  WDTCCS = SC           ; WDT input clock selector (Software Control)
                      00126 
                      00127 ; CONFIG4L
                      00128   CONFIG  WRT0 = OFF            ; Write Protection Block 0 (Block 0 (000800-001FFFh) not write-protected
                            )
                      00129   CONFIG  WRT1 = OFF            ; Write Protection Block 1 (Block 1 (002000-003FFFh) not write-protected
                            )
                      00130 
                      00131 ; CONFIG4H
                      00132   CONFIG  WRTC = OFF            ; Configuration Register Write Protection bit (Configuration registers (
                            300000-30000Bh) not write-protected)
                      00133   CONFIG  WRTB = OFF            ; Boot Block Write Protection bit (Boot Block (000000-0007FFh) not write
                            -protected)
                      00134   CONFIG  WRTD = OFF            ; Data EEPROM Write Protection bit (Data EEPROM not write-protected)
MPASM 5.77  /HOME/SCOTT/MPLABXPROJECTS/BATTL   8-10-2018  22:42:13         PAGE  4


LOC  OBJECT CODE     LINE SOURCE TEXT
  VALUE

                      00135   CONFIG  SCANE = ON            ; Scanner Enable bit (Scanner module is available for use, SCANMD bit ca
                            n control the module)
                      00136   CONFIG  LVP = ON              ; Low Voltage Programming Enable bit (Low voltage programming enabled. M
                            CLR/VPP pin function is MCLR. MCLRE configuration bit is ignored)
                      00137 
                      00138 ; CONFIG5L
                      00139   CONFIG  CP = OFF              ; UserNVM Program Memory Code Protection bit (UserNVM code protection di
                            sabled)
                      00140   CONFIG  CPD = OFF             ; DataNVM Memory Code Protection bit (DataNVM code protection disabled)
                      00141 
                      00142 ; CONFIG5H
                      00143 
                      00144 ; CONFIG6L
                      00145   CONFIG  EBTR0 = OFF           ; Table Read Protection Block 0 (Block 0 (000800-001FFFh) not protected 
                            from table reads executed in other blocks)
                      00146   CONFIG  EBTR1 = OFF           ; Table Read Protection Block 1 (Block 1 (002000-003FFFh) not protected 
                            from table reads executed in other blocks)
                      00147 
                      00148 ; CONFIG6H
                      00149   CONFIG  EBTRB = OFF           ; Boot Block Table Read Protection bit (Boot Block (000000-0007FFh) not 
                            protected from table reads executed in other blocks)
                      00150 
                      00151 ;*******************************************************************************
                      00152 ;
                      00153 ; TODO Step #3 - Variable Definitions
                      00154 ;
                      00155 ; Refer to datasheet for available data memory (RAM) organization assuming
                      00156 ; relocatible code organization (which is an option in project
                      00157 ; properties > mpasm (Global Options)).  Absolute mode generally should
                      00158 ; be used sparingly.
                      00159 ;
                      00160 ; Example of using GPR Uninitialized Data
                      00161 ;
                      00162 ;   GPR_VAR        UDATA
                      00163 ;   MYVAR1         RES        1      ; User variable linker places
                      00164 ;   MYVAR2         RES        1      ; User variable linker places
                      00165 ;   MYVAR3         RES        1      ; User variable linker places
                      00166 ;
                      00167 ;   ; Example of using Access Uninitialized Data Section (when available)
                      00168 ;   ; The variables for the context saving in the device datasheet may need
                      00169 ;   ; memory reserved here.
                      00170 ;   INT_VAR        UDATA_ACS
                      00171 ;   W_TEMP         RES        1      ; w register for context saving (ACCESS)
                      00172 ;   STATUS_TEMP    RES        1      ; status used for context saving
                      00173 ;   BSR_TEMP       RES        1      ; bank select used for ISR context saving
                      00174 ;
                      00175 ;*******************************************************************************
                      00176 
                      00177 ; TODO PLACE VARIABLE DEFINITIONS GO HERE
                      00178   
Warning[207]: Found label after column 1. (NUMCHARS)
  00000009            00179   NUMCHARS equ 0x09
Warning[207]: Found label after column 1. (TMR1THRESH)
MPASM 5.77  /HOME/SCOTT/MPLABXPROJECTS/BATTL   8-10-2018  22:42:13         PAGE  5


LOC  OBJECT CODE     LINE SOURCE TEXT
  VALUE

  000000C3            00180   TMR1THRESH equ 0xC3 ;195 cycles
Warning[207]: Found label after column 1. (UPDN)
  00000000            00181   UPDN equ 0
Warning[207]: Found label after column 1. (LFTRT)
  00000001            00182   LFTRT equ 1
Warning[207]: Found label after column 1. (DISPFRMTHRESH)
  000000EF            00183   DISPFRMTHRESH equ 0xEF
                      00184 bank1 udata
000000                00185 xdir res 1
000001                00186 xpos res 1
Warning[207]: Found label after column 1. (ydir)
000002                00187  ydir res 1
Warning[207]: Found label after column 1. (ypos)
000003                00188  ypos res 1
000004                00189 parity res 1
000005                00190 count res 1
000006                00191 count1 res 1
000007                00192 count2 res 1
000008                00193 count5 res 1
000009                00194 linemod res 1
00000A                00195 index res 1
Warning[207]: Found label after column 1. (mdata)
00000B                00196  mdata res 1
Warning[207]: Found label after column 1. (mdata1)
00000C                00197  mdata1 res 1
Warning[207]: Found label after column 1. (state)
00000D                00198  state res 1
Warning[207]: Found label after column 1. (spitcount)
00000E                00199  spitcount res 1
Warning[207]: Found label after column 1. (framecount)
00000F                00200  framecount res 1
Warning[207]: Found label after column 1. (shipsize)
000010                00201  shipsize res 1
Warning[207]: Found label after column 1. (direction)
000011                00202  direction res 1
Warning[207]: Found label after column 1. (byte1)
000012                00203  byte1 res 1
Warning[207]: Found label after column 1. (byte2)
000013                00204  byte2 res 1
Warning[207]: Found label after column 1. (byte3)
000014                00205  byte3 res 1
Warning[207]: Found label after column 1. (cursorx)
000015                00206  cursorx res 1
Warning[207]: Found label after column 1. (cursory)
000016                00207  cursory res 1
Warning[207]: Found label after column 1. (cell)
000017                00208  cell res 1
Warning[207]: Found label after column 1. (mdone)
000018                00209  mdone res 1
Warning[207]: Found label after column 1. (plyrmoveflag)
000019                00210  plyrmoveflag res 1
Warning[207]: Found label after column 1. (dispplyrships)
00001A                00211  dispplyrships res 1
MPASM 5.77  /HOME/SCOTT/MPLABXPROJECTS/BATTL   8-10-2018  22:42:13         PAGE  6


LOC  OBJECT CODE     LINE SOURCE TEXT
  VALUE

Warning[207]: Found label after column 1. (dispshipfrmcnt)
00001B                00212  dispshipfrmcnt res 1
Warning[207]: Found label after column 1. (rand)
00001C                00213  rand res 1
Warning[207]: Found label after column 1. (randmod)
00001D                00214  randmod res 1
Warning[207]: Found label after column 1. (x)
00001E                00215  x res 1
Warning[207]: Found label after column 1. (y)
00001F                00216  y res 1
Warning[207]: Found label after column 1. (clroffsetcnt)
000020                00217  clroffsetcnt res 1
Warning[207]: Found label after column 1. (udoffsetcnt)
000021                00218  udoffsetcnt res 1
Warning[207]: Found label after column 1. (mbutton)
000022                00219  mbutton res 1
Warning[207]: Found label after column 1. (messagepointer)
000023                00220  messagepointer res 1
Warning[207]: Found label after column 1. (tmp)
000024                00221  tmp res 1
Warning[207]: Found label after column 1. (dutycycle)
000025                00222  dutycycle res 1
Warning[207]: Found label after column 1. (amplitude)
000026                00223  amplitude res 1
000027                00224 offsettable res 0x64 
                      00225 
Warning[207]: Found label after column 1. (bank2)
                      00226  bank2 udata
Warning[207]: Found label after column 1. (compships)
000000                00227  compships res 0x64 ;holds computer ships
Warning[207]: Found label after column 1. (playerships)
000064                00228  playerships res 0x64 ;holds player ships
Warning[207]: Found label after column 1. (arrpointer)
0000C8                00229  arrpointer res 1 ;points to maximum index in array1 and array2
                      00230 ;*******************************************************************************
                      00231 ; Reset Vector
                      00232 ;*******************************************************************************
                      00233 
                      00234 RES_VECT  CODE    0x0000            ; processor reset vector
Warning[203]: Found opcode in column 1. (GOTO)
000000 EF?? F???      00235 GOTO START    
                      00236 
                      00237 ;*******************************************************************************
                      00238 ; TODO Step #4 - Interrupt Service Routines
                      00239 ;
                      00240 ; There are a few different ways to structure interrupt routines in the 8
                      00241 ; bit device families.  On PIC18's the high priority and low priority
                      00242 ; interrupts are located at 0x0008 and 0x0018, respectively.  On PIC16's and
                      00243 ; lower the interrupt is at 0x0004.  Between device families there is subtle
                      00244 ; variation in the both the hardware supporting the ISR (for restoring
                      00245 ; interrupt context) as well as the software used to restore the context
                      00246 ; (without corrupting the STATUS bits).
                      00247 ;
MPASM 5.77  /HOME/SCOTT/MPLABXPROJECTS/BATTL   8-10-2018  22:42:13         PAGE  7


LOC  OBJECT CODE     LINE SOURCE TEXT
  VALUE

                      00248 ; General formats are shown below in relocatible format.
                      00249 ;
                      00250 ;------------------------------PIC16's and below--------------------------------
                      00251 ;
                      00252 ; ISR       CODE    0x0004           ; interrupt vector location
                      00253 ;
                      00254 ;     <Search the device datasheet for 'context' and copy interrupt
                      00255 ;     context saving code here.  Older devices need context saving code,
                      00256 ;     but newer devices like the 16F#### don't need context saving code.>
                      00257 ;
                      00258 ;     RETFIE
                      00259 ;
                      00260 ;----------------------------------PIC18's--------------------------------------
                      00261 ;
                      00262 ; ISRHV     CODE    0x0008
                      00263 ;     GOTO    HIGH_ISR
                      00264 ; ISRLV     CODE    0x0018
                      00265 ;     GOTO    LOW_ISR
                      00266 ;
                      00267 ; ISRH      CODE                     ; let linker place high ISR routine
                      00268 ; HIGH_ISR
                      00269 ;     <Insert High Priority ISR Here - no SW context saving>
                      00270 ;     RETFIE  FAST
                      00271 ;
                      00272 ; ISRL      CODE                     ; let linker place low ISR routine
                      00273 ; LOW_ISR
                      00274 ;       <Search the device datasheet for 'context' and copy interrupt
                      00275 ;       context saving code here>
                      00276 ;     RETFIE
                      00277 ;
                      00278 ;*******************************************************************************
                      00279   
                      00280 ISRHV CODE 0x0008
000008 EF?? F???      00281  GOTO HIGH_ISR
                      00282  
                      00283 ISRH CODE 0x000E
00000E                00284 HIGH_ISR
00000E EC?? F???      00285  call ISR
000012 0011           00286  retfie FAST
                      00287 ;*******************************************************************************
                      00288 ; MAIN PROGRAM
                      00289 ;*******************************************************************************
                      00290 
                      00291 MAIN_PROG CODE 0x0020       ; let linker place main program
                      00292   
000020                00293 getcount:
000020 010?           00294     banksel state
000022 5100           00295     movf state,w,BANKED
000024 010F           00296     banksel WREG
000026 45E8           00297     rlncf WREG,w,BANKED
000028 CFF9 F???      00298     movff PCL,tmp
00002C 27F9           00299     addwf PCL,1,BANKED
00002E 0CA6           00300     retlw 0xA6 ;game process
MPASM 5.77  /HOME/SCOTT/MPLABXPROJECTS/BATTL   8-10-2018  22:42:13         PAGE  8


LOC  OBJECT CODE     LINE SOURCE TEXT
  VALUE

000030 0C08           00301     retlw 0x08 ;draw message
                      00302     ;retlw 0x03 ;3 lines of gap
000032 0C50           00303     retlw 0x50 ;draw grid
000034 0C03           00304     retlw 0x03 ;horiz equalization
000036 0C03           00305     retlw 0x03 ;vertical equalization
000038 0C03           00306     retlw 0x03 ;horiz equalization
                      00307     
00003A                00308 branchisr:
00003A CFF9 F???      00309     movff PCL,tmp
00003E 27F9           00310     addwf PCL,1,BANKED ;1 cycle
000040 D???           00311  bra gameprocess ; 2 cycles
000042 D???           00312  bra drawmessage
                      00313  ;bra gap
000044 D???           00314  bra drawimage
000046 D???           00315  bra horizequal
000048 D???           00316  bra vsync
00004A D???           00317  bra horizequal
                      00318 
00004C                00319 getimage:
00004C CFF9 F???      00320     movff PCL,tmp
000050 27F9           00321     addwf PCL,1,BANKED
                      00322     
                      00323     ;character 0, empty
000052 0C00           00324     retlw 0x00 ;00000000
000054 0C7E           00325     retlw 0x7E ;01111110
000056 0C7E           00326     retlw 0x7E ;01111110
000058 0C7E           00327     retlw 0x7E ;01111110
00005A 0C7E           00328     retlw 0x7E ;01111110
00005C 0C7E           00329     retlw 0x7E ;01111110
00005E 0C7E           00330     retlw 0x7E ;01111110
000060 0C00           00331     retlw 0x00 ;00000000
                      00332     
                      00333     ;character 1, miss
000062 0C00           00334     retlw 0x00 ;00000000
000064 0C3C           00335     retlw 0x3C ;00111100
000066 0C5A           00336     retlw 0x5A ;01011010
000068 0C66           00337     retlw 0x66 ;01100110
00006A 0C66           00338     retlw 0x66 ;01100110
00006C 0C5A           00339     retlw 0x5A ;01011010
00006E 0C3C           00340     retlw 0x3C ;00111100
000070 0C00           00341     retlw 0x00 ;00000000
                      00342     
                      00343     ;character2, solid box, used as hit indicator and ship indicator for player ships
000072 0C00           00344     retlw 0x00 ;00000000
000074 0C7E           00345     retlw 0x7E ;01111110
000076 0C42           00346     retlw 0x42 ;01000010
000078 0C42           00347     retlw 0x42 ;01000010
00007A 0C42           00348     retlw 0x42 ;01000010
00007C 0C42           00349     retlw 0x42 ;01000010
00007E 0C7E           00350     retlw 0x7E ;01111110
000080 0C00           00351     retlw 0x00 ;00000000
                      00352     
                      00353     ;character 3, fill completely, used as sink indicator
MPASM 5.77  /HOME/SCOTT/MPLABXPROJECTS/BATTL   8-10-2018  22:42:13         PAGE  9


LOC  OBJECT CODE     LINE SOURCE TEXT
  VALUE

000082 0C00           00354     retlw 0x00
000084 0C00           00355     retlw 0x00
000086 0C00           00356     retlw 0x00
000088 0C00           00357     retlw 0x00
00008A 0C00           00358     retlw 0x00
00008C 0C00           00359     retlw 0x00
00008E 0C00           00360     retlw 0x00
000090 0C00           00361     retlw 0x00
                      00362     
                      00363     ;character 4, explosion
000092 0C54           00364     retlw b'01010100'
000094 0C2A           00365     retlw b'00101010'
000096 0C54           00366     retlw b'01010100'
000098 0C2A           00367     retlw b'00101010'
00009A 0C54           00368     retlw b'01010100'
00009C 0C2A           00369     retlw b'00101010'
00009E 0C54           00370     retlw b'01010100'
0000A0 0C2A           00371     retlw b'00101010'
                      00372     
0000A2                00373 START
                      00374     ;initialization
0000A2 010F           00375     banksel ANSELA
0000A4 6B11           00376     clrf ANSELA, BANKED        ;pins are digital
0000A6 6B19           00377     clrf ANSELB,BANKED
0000A8 6B21           00378     clrf ANSELC, BANKED
0000AA 8721           00379     bsf ANSELC,3,BANKED ;allow adc input at rc3
0000AC 6910           00380     setf WPUA, BANKED          ;weak pull ups
0000AE 6918           00381     setf WPUB, BANKED
0000B0 6920           00382     setf WPUC, BANKED
0000B2 9310           00383     bcf WPUA,1, BANKED ;disable pull ups for mdata and mclock
0000B4 9510           00384     bcf WPUA,2, BANKED
                      00385     
                      00386     
                      00387     
0000B6 6B0E           00388     clrf SLRCONA, BANKED
0000B8 6B16           00389     clrf SLRCONB, BANKED
0000BA 6B1E           00390     clrf SLRCONC, BANKED
                      00391     
                      00392     ;initialize table pointer, upper,high,low
                      00393     
                      00394     ;clear plyrmoveflag
0000BC 010?           00395     banksel plyrmoveflag
0000BE 6B00           00396     clrf plyrmoveflag,BANKED
                      00397     
                      00398     ;clear cell
0000C0 010?           00399     banksel cell
0000C2 6B00           00400     clrf cell,BANKED
                      00401     
                      00402     ;clear duty cycle
0000C4 010?           00403     banksel dutycycle
0000C6 6B00           00404     clrf dutycycle,BANKED
                      00405     
                      00406     ;set plyr ships flag
MPASM 5.77  /HOME/SCOTT/MPLABXPROJECTS/BATTL   8-10-2018  22:42:13         PAGE 10


LOC  OBJECT CODE     LINE SOURCE TEXT
  VALUE

0000C8 010?           00407     banksel dispplyrships
0000CA 6900           00408     setf dispplyrships,BANKED
                      00409     
                      00410     ;clear dispshipfrmcnt
0000CC 010?           00411     banksel dispshipfrmcnt
0000CE 6B00           00412     clrf dispshipfrmcnt,BANKED
                      00413     
                      00414     ;set amplitude to 0x0A
0000D0 010?           00415     banksel amplitude
0000D2 0E0A           00416     movlw 0x0A
0000D4 6F00           00417     movwf amplitude,BANKED
                      00418     
                      00419     ;initialize offsettable
0000D6 EE?? F0??      00420     lfsr FSR0,offsettable
0000DA 010F           00421     banksel POSTINC0
0000DC 0E00           00422     movlw 0x00
0000DE 6FEE           00423     movwf POSTINC0,BANKED
0000E0 0E63           00424     movlw 0x63 ;decimal 99
0000E2 010?           00425     banksel count
0000E4 6F00           00426     movwf count, BANKED
0000E6                00427 init:
0000E6 010F           00428     banksel POSTINC0
0000E8 0E00           00429     movlw 0
0000EA 6FEE           00430     movwf POSTINC0, BANKED
0000EC 010?           00431     banksel count
0000EE 2F00           00432     decfsz count, 1, BANKED
0000F0 D???           00433     bra init
                      00434     
                      00435     ;setup timer 0 with a 1:4 prescaler, 8 bits 
0000F2 0E42           00436     movlw 0x42
0000F4 010F           00437     banksel T0CON1
0000F6 6FD6           00438     movwf T0CON1, BANKED
0000F8 69D4           00439     setf TMR0H, BANKED ;timer0 period value
0000FA 8FD5           00440     bsf T0CON0,T0EN, BANKED
                      00441     
                      00442     ;setup timer 1 to fosc/4
0000FC 010F           00443     banksel TMR1CLK
0000FE 81D2           00444     bsf TMR1CLK,0,BANKED
                      00445     
                      00446     ;set negative edge detect on IOCAN 1,2
000100 010F           00447     banksel IOCAN
000102 830B           00448     bsf IOCAN,1,BANKED
000104 850B           00449     bsf IOCAN,2,BANKED
                      00450     
                      00451     ;setup GPIO
                      00452     ;pin5 is sync, RA3
                      00453     ;pin11 is video, RC0
                      00454     ;RB0 is the LED
                      00455     ;pin3 mclock is RA1
                      00456     ;pin4 mdata is RA2
                      00457     ;pin12 audio is RC1
000106 010F           00458     banksel TRISA
000108 9788           00459     bcf TRISA,3, BANKED
MPASM 5.77  /HOME/SCOTT/MPLABXPROJECTS/BATTL   8-10-2018  22:42:13         PAGE 11


LOC  OBJECT CODE     LINE SOURCE TEXT
  VALUE

00010A 918A           00460     bcf TRISC,0, BANKED
00010C 938A           00461     bcf TRISC,1,BANKED ;audio tris
00010E 978A           00462     bcf TRISC,3, BANKED ;SPI clock
000110 9189           00463     bcf TRISB,0, BANKED
000112 8185           00464     bsf LATC,0, BANKED
000114 8783           00465     bsf LATA,3, BANKED
000116 9184           00466     bcf LATB,0, BANKED
000118 0E0E           00467     movlw 0x0E ;setup PPS module for SPI data at RC0
00011A 010E           00468     banksel RC0PPS
00011C 6FF7           00469     movwf RC0PPS, BANKED
00011E 0E0D           00470     movlw 0x0D ;setup SPI clock at RC3
000120 010E           00471     banksel RC3PPS
000122 6FFA           00472     movwf RC3PPS, BANKED 
000124 0E07           00473     movlw 0x07
000126 010E           00474     banksel RC1PPS
000128 6FF8           00475     movwf RC1PPS,BANKED ;audio, pwm3
                      00476     ;setup SPI
                      00477     
                      00478     ;setup PWM3 and timer2
00012A 010F           00479     banksel T2CON
00012C 81BF           00480     bsf T2CLKCON,0,BANKED
00012E 0E06           00481     movlw b'00000110'
000130 6FC0           00482     movwf T2RST,BANKED
000132 8FBD           00483     bsf T2CON,T2ON,BANKED
000134 0E40           00484     movlw 0x40 ;64 into period reg
000136 010F           00485     banksel PR2
000138 6FBC           00486     movwf PR2,BANKED
00013A 010F           00487     banksel PWM3DCL
00013C 6AA3           00488     clrf PWM3DCL
00013E 0E20           00489     movlw 0x20
000140 6FA4           00490     movwf PWM3DCH,BANKED
000142 8EA5           00491     bsf PWM3CON,EN
                      00492     
                      00493     
                      00494     
                      00495     
                      00496     ;setup adc
000144 010F           00497     banksel ADCON0
000146 8560           00498     bsf ADCON0,ADFM, BANKED ;formatting
000148 0E3D           00499     movlw 0x3D ;select temp sensor
00014A 6F5F           00500     movwf ADPCH,BANKED
00014C 6957           00501     setf ADCLK, BANKED ;fosc/128
00014E 0E20           00502     movlw 0x20
000150 6F5C           00503     movwf ADACQ, BANKED
000152 8E60           00504     bsf ADCON0,ADON
000154 010F           00505     banksel FVRCON
000156 8B31           00506     bsf FVRCON,TSEN,BANKED ;enable the temperature sensor
                      00507     
                      00508     ;initialize mouse
                      00509     ;banksel parity
                      00510     ;clrf parity
000158 0E3D           00511     movlw 0x3D
00015A EC?? F???      00512     call delay ;delay for 1 second to allow reset, works
MPASM 5.77  /HOME/SCOTT/MPLABXPROJECTS/BATTL   8-10-2018  22:42:13         PAGE 12


LOC  OBJECT CODE     LINE SOURCE TEXT
  VALUE

00015E 0EF4           00513     movlw 0xF4 ;enable data reporting
000160 010?           00514     banksel mdata
000162 6F00           00515     movwf mdata, BANKED
                      00516     
000164 EC?? F???      00517     call sendcommand
000168 EC?? F???      00518     call readbyte ;sends 0xF4 ONLY!!! no 0xFA
                      00519     
                      00520     ;initialize player ships and clear interrupt flags
00016C 010E           00521     banksel PIR4
00016E 91CE           00522     bcf PIR4,TMR1IF
000170 010E           00523     banksel PIR0
000172 9BCA           00524     bcf PIR0,TMR0IF
000174 EC?? F???      00525     call seed
000178 EC?? F???      00526     call clearplayer
00017C EC?? F???      00527     call clearcomp
000180 EC?? F???      00528     call initplayer
000184 EC?? F???      00529     call initcomp
                      00530     
                      00531   
                      00532     
                      00533     ;initialize computer ships
                      00534     ;call initcomp
                      00535     
                      00536     ;initialize board with player ships
                      00537     ;call initboard
                      00538     
                      00539 ;cont:
                      00540  ;   call readbyte
                      00541  ;   call readbyte
                      00542  ;   call readbyte
                      00543     ;test bit 1 of mdata1
                      00544     ;left mouse button is bit 0
                      00545     ;right mouse button is bit 1
                      00546     ;x sign is bit 4
                      00547     ;y sign is bit 5
                      00548     ;x delta is byte 1
                      00549     ;y delta is byte 2
                      00550   ;  banksel LATB
                      00551   ;  bcf LATB,0,BANKED
                      00552   ;  banksel mdata1
                      00553   ;  btfss mdata1,0,BANKED
                      00554   ;  bra cont1
                      00555   ;  banksel LATB
                      00556   ;  bsf LATB,0,BANKED
                      00557 ;cont1:    
                      00558  ;   bra cont
                      00559     
                      00560     ;call readbyte
                      00561     ;call readbyte
                      00562  ;   movlw 0xEA ;enable stream mode
                      00563   ;  banksel mdata
                      00564    ; movwf mdata
                      00565    ; call sendcommand ;sends wreg data to mouse
MPASM 5.77  /HOME/SCOTT/MPLABXPROJECTS/BATTL   8-10-2018  22:42:13         PAGE 13


LOC  OBJECT CODE     LINE SOURCE TEXT
  VALUE

                      00566    ; call readbyte ;reads a byte from mouse and puts in wreg
                      00567     ;movlw 0xF4 ;enable reporting in stream mode
                      00568    ; banksel mdata
                      00569    ; movwf mdata
                      00570    ; call sendcommand
                      00571    ; call readbyte
                      00572     ;for debug, count clock pulses, are we getting an ack bit? Yes we are. 13 bits
                      00573     
                      00574     ;first read is FF
                      00575     ;second read is FD
                      00576     ;third read is 11010101, D5 
                      00577     ;banksel mdata1
                      00578     ;btfss mdata1,0
                      00579     ;bra mainloop
                      00580     ;banksel LATB
                      00581     ;bsf LATB,0
                      00582    
000188 010?           00583     banksel xpos
00018A 6B00           00584     clrf xpos,BANKED
00018C 010?           00585     banksel state
00018E 6B00           00586     clrf state,BANKED
000190 010?           00587     banksel count1
000192 0EA6           00588     movlw 0xA6
000194 6F00           00589     movwf count1,BANKED
000196 010?           00590     banksel index
000198 6B00           00591     clrf index,BANKED
00019A 010?           00592     banksel linemod
00019C 6B00           00593     clrf linemod,BANKED
00019E 010?           00594     banksel spitcount
0001A0 6B00           00595     clrf spitcount,BANKED
0001A2 010?           00596     banksel ypos
0001A4 6B00           00597     clrf ypos,BANKED
0001A6 010?           00598     banksel framecount
0001A8 6B00           00599     clrf framecount,BANKED
0001AA 010?           00600     banksel cursorx
0001AC 6B00           00601     clrf cursorx,BANKED
0001AE 010?           00602     banksel cursory
0001B0 6B00           00603     clrf cursory,BANKED
0001B2 010?           00604     banksel count
0001B4 6B00           00605     clrf count,BANKED
                      00606     
                      00607     ;enable interrupts
0001B6 010E           00608     banksel PIE0
0001B8 8BC2           00609     bsf PIE0,TMR0IE
0001BA 010E           00610     banksel PIE4
0001BC 81C6           00611     bsf PIE4,TMR1IE
0001BE 010F           00612     banksel INTCON
0001C0 8EF2           00613     bsf INTCON,GIE
0001C2 8CF2           00614     bsf INTCON,PEIE
                      00615     
                      00616     
                      00617     
                      00618     ;mouse loop
MPASM 5.77  /HOME/SCOTT/MPLABXPROJECTS/BATTL   8-10-2018  22:42:13         PAGE 14


LOC  OBJECT CODE     LINE SOURCE TEXT
  VALUE

0001C4 010?           00619     banksel mdone
0001C6 6B00           00620     clrf mdone,BANKED
                      00621     
0001C8                00622 mouseloop:
0001C8 EC?? F???      00623     call readbyte
0001CC C??? F???      00624     movff mdata1,byte1
0001D0 EC?? F???      00625     call readbyte
0001D4 C??? F???      00626     movff mdata1,byte2
0001D8 EC?? F???      00627     call readbyte
0001DC C??? F???      00628     movff mdata1,byte3  
0001E0 010?           00629     banksel mdone
0001E2 6900           00630     setf mdone,BANKED
0001E4 D???           00631     bra mouseloop    
                      00632     
                      00633    
                      00634     
                      00635     ;horizontal sync routine, 9 cycles in front porch
0001E6                00636 horizline:
0001E6 010E           00637     banksel PIR0 ;1 cycle
                      00638     ;btfss PIR0,TMR0IF ;1 cycle
                      00639     ;bra horizline
                      00640     
                      00641     ;wait for front porch, 7 cycles
0001E8 9BCA           00642     bcf PIR0,TMR0IF ;1 cycle
0001EA 010?           00643     banksel count ;1 cycle
0001EC 0E07           00644     movlw 7;1 cycle
0001EE 6E??           00645     movwf count ;1 cycle
                      00646     
0001F0 0000           00647     nop ;1 cycle
0001F2 0000           00648     nop ;1 cycle
0001F4 010F           00649     banksel LATA ; 1 cycle
0001F6 9683           00650     bcf LATA,3 ;clear sync, 1 cycle
                      00651     
                      00652     ;wait for back porch, 75 cycles
0001F8 010?           00653     banksel count ;1 cycle
0001FA 0E18           00654     movlw  0x18;1 cycle
0001FC 6E??           00655     movwf count ;1 cycle
0001FE                00656 backporch:
0001FE 2E??           00657     decfsz count ;1 cycle
000200 D???           00658     bra backporch ;2 cycles
                      00659     
000202 010F           00660     banksel LATA
000204 8683           00661     bsf LATA,3 ;set sync
                      00662     
000206 0012           00663     return
                      00664     
                      00665     
                      00666     ;vertical sync routine, 9 cycles for front porch
000208                00667 vertline:
000208 010E           00668     banksel PIR0 ;1 cycle
                      00669     ;btfss PIR0,TMR0IF ;1 cycle
                      00670     ;bra vertline
                      00671     
MPASM 5.77  /HOME/SCOTT/MPLABXPROJECTS/BATTL   8-10-2018  22:42:13         PAGE 15


LOC  OBJECT CODE     LINE SOURCE TEXT
  VALUE

                      00672     ;wait for front porch, 7 cycles
00020A 9BCA           00673     bcf PIR0,TMR0IF ;1 cycle
00020C 010?           00674     banksel count ;1 cycle
00020E 0E07           00675     movlw 7;1 cycle
000210 6E??           00676     movwf count ;1 cycle
000212 0000           00677     nop ;1  cycle
000214 0000           00678     nop ;1 cycle
000216 010F           00679     banksel LATA ;1 cycle
000218 8683           00680     bsf LATA,3 ;set sync, 1 cycle
                      00681     
                      00682     ;wait for back porch, 75 cycles
00021A 010?           00683     banksel count ;1 cycle
00021C 0E18           00684     movlw  0x18;1 cycle
00021E 6E??           00685     movwf count ;1 cycle
000220                00686 backporchvert:
000220 2E??           00687     decfsz count ;1 cycle
000222 D???           00688     bra backporchvert ;2 cycles
                      00689     
000224 010F           00690     banksel LATA
000226 9683           00691     bcf LATA,3 ;clear sync
                      00692     
000228 0012           00693     return    
                      00694     
                      00695 ;delay for ~1 second
00022A                00696 delay:
00022A 010F           00697     banksel T0CON0
00022C 89D5           00698     bsf T0CON0,4, BANKED ;temporarily make timer0 a 16 bit timer
00022E                00699 delaystart:
00022E 010F           00700     banksel TMR0H
000230 6BD4           00701     clrf TMR0H, BANKED
000232 6BD3           00702     clrf TMR0L, BANKED
000234                00703 waitovf:
000234 010E           00704     banksel PIR0
000236 ABCA           00705     btfss PIR0,TMR0IF, BANKED
000238 D???           00706     bra waitovf
00023A 9BCA           00707     bcf PIR0,TMR0IF, BANKED
00023C 010F           00708     banksel WREG
00023E 2FE8           00709     decfsz WREG,1, BANKED
000240 D???           00710     bra delaystart
                      00711     
                      00712     ;turn tmr0 back to 8 bit
000242 010F           00713     banksel T0CON0
000244 99D5           00714     bcf T0CON0,4, BANKED
000246 69D4           00715     setf TMR0H, BANKED
000248 6BD3           00716     clrf TMR0L, BANKED
00024A 010E           00717     banksel PIR0
00024C 9BCA           00718     bcf PIR0,TMR0IF, BANKED
00024E 0012           00719     return
                      00720     
                      00721 ;send a command in wreg to mouse
000250                00722 sendcommand:
                      00723       
000250 010F           00724     banksel LATA
MPASM 5.77  /HOME/SCOTT/MPLABXPROJECTS/BATTL   8-10-2018  22:42:13         PAGE 16


LOC  OBJECT CODE     LINE SOURCE TEXT
  VALUE

                      00725     ;bring clock low for 100us
000252 9383           00726     bcf LATA,1, BANKED
000254 9388           00727     bcf TRISA,1, BANKED
                      00728     
                      00729      ;bring data low
000256 010F           00730     banksel LATA
000258 9583           00731     bcf LATA,2, BANKED
00025A 9588           00732     bcf TRISA,2, BANKED
                      00733     
                      00734     ;delay for 3200 cycles
00025C 0EC8           00735     movlw 0xC8 ;200
00025E 010?           00736     banksel count
000260 6F00           00737     movwf count,BANKED
000262                00738 delay1:
000262 0000           00739     nop
000264 0000           00740     nop
000266 0000           00741     nop
000268 0000           00742     nop
00026A 0000           00743     nop
00026C 0000           00744     nop
00026E 0000           00745     nop
000270 0000           00746     nop
000272 0000           00747     nop
000274 0000           00748     nop
000276 0000           00749     nop
000278 0000           00750     nop
00027A 0000           00751     nop
00027C 2F00           00752     decfsz count,1,BANKED
00027E D???           00753     bra delay1
                      00754     
                      00755     ;release clock
000280 010F           00756     banksel TRISA
000282 8388           00757     bsf TRISA,1, BANKED
                      00758     
                      00759     ;wait for clock to be pulled low
000284                00760 waitlow1:
000284 B38D           00761     btfsc PORTA,1, BANKED
000286 D???           00762     bra waitlow1
                      00763     
                      00764     ;wait for clock high
000288                00765 waithigh10:
000288 A38D           00766     btfss PORTA,1,BANKED
00028A D???           00767     bra waithigh10
                      00768     
                      00769     ;wait for clock low
00028C                00770 waitlow10:
00028C B38D           00771     btfsc PORTA,1,BANKED
00028E D???           00772     bra waitlow10
                      00773     
                      00774     ;loop 8x to send data
000290 0E08           00775     movlw 0x08
000292 010?           00776     banksel count
000294 6F00           00777     movwf count, BANKED
MPASM 5.77  /HOME/SCOTT/MPLABXPROJECTS/BATTL   8-10-2018  22:42:13         PAGE 17


LOC  OBJECT CODE     LINE SOURCE TEXT
  VALUE

000296                00778 senddata:
000296 010?           00779     banksel mdata
000298 B100           00780     btfsc mdata,0, BANKED
00029A D???           00781     bra setdata
00029C 010F           00782     banksel LATA
00029E 9583           00783     bcf LATA,2, BANKED
                      00784     
0002A0                00785 finishsetdata:
                      00786    
0002A0 010?           00787     banksel mdata
0002A2 4300           00788     rrncf mdata,1,1
                      00789     
                      00790     ;wait for clock to be high
0002A4                00791 waithigh2:
0002A4 010F           00792     banksel PORTA
0002A6 A38D           00793     btfss PORTA,1, BANKED
0002A8 D???           00794     bra waithigh2
                      00795     
                      00796     ;wait for clock to be low
0002AA                00797 waitlow2:
                      00798     
                      00799     ;read the ra1 bit into the adc
                      00800     ;banksel ANSELA
                      00801     ;bsf ANSELA,1
                      00802     ;bsf ADCON0,ADON ;enable the adc
                      00803     ;bsf ADCON0,ADGO
                      00804 ;readanalog:
                      00805  ;   btfsc ADCON0,ADGO
                      00806   ;  bra readanalog
                      00807     
                      00808     ;turn on the led if ADRESL is <10
                      00809     ;0x80 no turn on, 128, 0.64 volts
                      00810     ;0xA0 no turn on, 160, 0.8 volts
                      00811     ;0xC0 turn on, 192, 0.96 volts
                      00812     ;goes down between 0.8 and 0.96 volts
                      00813    ; banksel ADRESH
                      00814    ; movlw 0xA0
                      00815    ; banksel ADRESL
                      00816    ; cpfslt ADRESL
                      00817    ; bra readanalogcont
                      00818    ; banksel LATB
                      00819    ; bsf LATB,0
                      00820 ;readanalogcont:    
0002AA B38D           00821     btfsc PORTA,1, BANKED
0002AC D???           00822     bra waitlow2
                      00823     
0002AE 010?           00824     banksel count
0002B0 2F00           00825     decfsz count,1,1
0002B2 D???           00826     bra senddata
                      00827     
                      00828 ;send parity------------------------
0002B4 010F           00829     banksel LATA
0002B6 9583           00830     bcf LATA,2,BANKED
MPASM 5.77  /HOME/SCOTT/MPLABXPROJECTS/BATTL   8-10-2018  22:42:13         PAGE 18


LOC  OBJECT CODE     LINE SOURCE TEXT
  VALUE

                      00831     
                      00832     ;wait for clock to be high
0002B8                00833 waithigh3:
0002B8 A38D           00834     btfss PORTA,1, BANKED
0002BA D???           00835     bra waithigh3
                      00836     
                      00837     ;wait for clock to be low
0002BC                00838 waitlow3:
0002BC B38D           00839     btfsc PORTA,1, BANKED
0002BE D???           00840     bra waitlow3
                      00841     
                      00842     ;release data
0002C0 8588           00843     bsf TRISA,2, BANKED
                      00844     
                      00845     ;wait for data to be low
0002C2                00846 waitlow4:
0002C2 B58D           00847     btfsc PORTA,2, BANKED
0002C4 D???           00848     bra waitlow4
                      00849     
                      00850     ;wait for clock to be low
0002C6                00851 waitclocklow4:
0002C6 B38D           00852     btfsc PORTA,1, BANKED
0002C8 D???           00853     bra waitclocklow4
                      00854     
                      00855     ;wait for data and clock to be high
0002CA                00856 waitboth1:
0002CA A38D           00857     btfss PORTA,1, BANKED
0002CC D???           00858     bra waitboth1
0002CE A58D           00859     btfss PORTA,2, BANKED
0002D0 D???           00860     bra waitboth1
0002D2 0012           00861     return
                      00862     
                      00863 ;set the data bit, sets 0xF4
0002D4                00864 setdata:
0002D4 010F           00865     banksel LATA
0002D6 8583           00866     bsf LATA,2, BANKED 
0002D8 D???           00867     bra finishsetdata
                      00868     
                      00869 ;set bit7 of wreg
0002DA                00870 setmdata1:
0002DA 010?           00871     banksel mdata1
0002DC 8F00           00872     bsf mdata1,7, BANKED
0002DE 0012           00873     return
                      00874     
                      00875 ;read a byte from mouse, put in wreg
0002E0                00876 readbyte:
0002E0 010F           00877     banksel PORTA
                      00878     ;wait for clock low and data low, start bit
0002E2                00879 rbwaitlow4:
0002E2 B38D           00880     btfsc PORTA,1, BANKED
0002E4 D???           00881     bra rbwaitlow4
0002E6 B58D           00882     btfsc PORTA,2,BANKED
0002E8 D???           00883     bra rbwaitlow4
MPASM 5.77  /HOME/SCOTT/MPLABXPROJECTS/BATTL   8-10-2018  22:42:13         PAGE 19


LOC  OBJECT CODE     LINE SOURCE TEXT
  VALUE

                      00884         
                      00885     ;get 8 data bits
0002EA 0E08           00886     movlw 8
0002EC 010?           00887     banksel count5
0002EE 6F00           00888     movwf count5, BANKED
0002F0 010?           00889     banksel mdata1
0002F2 6B00           00890     clrf mdata1, BANKED
0002F4                00891 readloop:    
                      00892     ;wait for clock to be high
0002F4 010F           00893     banksel PORTA
0002F6                00894 rbwaithigh1:
0002F6 A38D           00895     btfss PORTA,1, BANKED
0002F8 D???           00896     bra rbwaithigh1
                      00897     
                      00898     ;wait for clock to be low
0002FA                00899 rbwaitlow1:
0002FA B38D           00900     btfsc PORTA,1, BANKED
0002FC D???           00901     bra rbwaitlow1
                      00902     
                      00903     ;shift in data to bit 7 of mdata1
0002FE 010?           00904     banksel mdata1 
000300 4300           00905     rrncf mdata1,1,BANKED
000302 010F           00906     banksel PORTA
000304 B58D           00907     btfsc PORTA,2, BANKED
000306 EC?? F???      00908     call setmdata1
                      00909     
00030A 010?           00910     banksel count5
00030C 2F00           00911     decfsz count5,1,BANKED
00030E D???           00912     bra readloop
                      00913     
000310 010F           00914     banksel PORTA
                      00915     ;get parity and stop
                      00916   ;wait for clock to be high
000312                00917 rbwaithigh2:
000312 A38D           00918     btfss PORTA,1, BANKED
000314 D???           00919     bra rbwaithigh2
                      00920     
                      00921     ;wait for clock to be low
000316                00922 rbwaitlow2:
000316 B38D           00923     btfsc PORTA,1, BANKED
000318 D???           00924     bra rbwaitlow2
                      00925    
                      00926   ;wait for clock to be high
00031A                00927 rbwaithigh3:
00031A 010F           00928     banksel PORTA
00031C A38D           00929     btfss PORTA,1, BANKED
00031E D???           00930     bra rbwaithigh3
                      00931     
                      00932     ;wait for clock to be low
000320                00933 rbwaitlow3:
000320 B38D           00934     btfsc PORTA,1, BANKED
000322 D???           00935     bra rbwaitlow3
                      00936     
MPASM 5.77  /HOME/SCOTT/MPLABXPROJECTS/BATTL   8-10-2018  22:42:13         PAGE 20


LOC  OBJECT CODE     LINE SOURCE TEXT
  VALUE

                      00937     ;wait for clock to be high
000324                00938 rbwaithigh5:
000324 A38D           00939     btfss PORTA,1, BANKED
000326 D???           00940     bra rbwaithigh5
                      00941 
000328 0012           00942     return
                      00943  
                      00944     ;clear lata 2 for parity
00032A                00945 clearparity:
00032A 010F           00946     banksel LATA
00032C 9583           00947     bcf LATA,2, BANKED
00032E D???           00948     bra waithigh3
                      00949     
                      00950 ;NTSC functions-----------------------------------------
000330                00951 ISR: 
                      00952     
000330 010E           00953      banksel PIR4
000332 B1CE           00954      btfsc PIR4,TMR1IF
000334 D???           00955      bra spitchar
                      00956      
                      00957      ;set PWM3DCH to dutycycle
000336 C??? FFA4      00958      movff dutycycle,PWM3DCH
                      00959     
                      00960     ; need 9 cycles in horizline and vertline
00033A 010E           00961      banksel PIR0 ;1 cycle
00033C 9BCA           00962  bcf PIR0,TMR0IF, BANKED ;1 cycle
00033E 010?           00963  banksel state ;1 cycle
000340 5100           00964  movf state,w,BANKED ;1 cycle
000342 010F           00965  banksel WREG ;1 cycle
000344 45E8           00966  rlncf WREG,w,BANKED ;1 cycle
000346 D???           00967  bra branchisr ;2 cycles
                      00968  
000348                00969 drawimage:
000348 EC?? F???      00970     call horizline ;2 cycles
                      00971     
                      00972     ;load NUMCHARS into spitcount
00034C 010?           00973     banksel spitcount
00034E 0E09           00974     movlw NUMCHARS
000350 6F00           00975     movwf spitcount,BANKED
                      00976     
                      00977     ;delay for blanking
000352 0E19           00978     movlw 0x19
000354 010?           00979     banksel count2
000356 6F00           00980     movwf count2,BANKED
000358                00981 blanking:
000358 2F00           00982     decfsz count2,1,BANKED
00035A D???           00983     bra blanking
                      00984     
                      00985     ;set FSR register, FSR0=offsettable+index
00035C 010?           00986     banksel index
00035E EE?? F0??      00987     lfsr FSR0,offsettable
000362 5100           00988     movf index,w,BANKED
000364 010F           00989     banksel FSR0L
MPASM 5.77  /HOME/SCOTT/MPLABXPROJECTS/BATTL   8-10-2018  22:42:13         PAGE 21


LOC  OBJECT CODE     LINE SOURCE TEXT
  VALUE

000366 27E9           00990     addwf FSR0L,1,BANKED
                      00991     
                      00992     ;turn on timer1
000368 010F           00993     banksel T1CON
00036A 80CF           00994     bsf T1CON,0
00036C 0EC3           00995     movlw  TMR1THRESH    ;196 cycles
00036E 6FCD           00996     movwf TMR1L,BANKED
000370 69CE           00997     setf TMR1H,BANKED
000372 010E           00998     banksel PIR4
000374 91CE           00999     bcf PIR4,TMR1IF,BANKED
                      01000     
                      01001     ;spit out first character
000376 010F           01002     banksel POSTINC0
000378 51EE           01003     movf POSTINC0,w,BANKED
00037A 010?           01004     banksel linemod
00037C 2500           01005     addwf linemod,w,BANKED
00037E 010F           01006     banksel WREG
000380 45E8           01007     rlncf WREG,w,BANKED
000382 010F           01008     banksel PCL
000384 EC?? F???      01009     call getimage
                      01010     
                      01011     ;turn on spi and load register
000388 010F           01012     banksel SSP1CON1
00038A 8B96           01013     bsf SSP1CON1,SSPEN,BANKED
00038C 6F92           01014     movwf SSP1BUF,BANKED
                      01015     
00038E D???           01016     bra endline
                      01017     
000390                01018 gameprocess:
000390 EC?? F???      01019     call horizline
000394 EC?? F???      01020     call clear
                      01021     
                      01022     ;if count1 is 0x14, randomly select value for duty cycle up to 0x40
000398 010?           01023     banksel count1
00039A 5100           01024     movf count1,w,BANKED
00039C 0814           01025     sublw 0x14
00039E E1??           01026     bnz noupdateduty
0003A0 C??? F???      01027     movff amplitude,randmod
0003A4 EC?? F???      01028     call random
0003A8 010?           01029     banksel dutycycle
0003AA 6F00           01030     movwf dutycycle,BANKED
0003AC 010F           01031     banksel PWM3CON
0003AE 9FA5           01032     bcf PWM3CON,EN,BANKED ;turn off pwm
0003B0 010?           01033     banksel amplitude
0003B2 0E0A           01034     movlw 0x0A
0003B4 6500           01035     cpfsgt amplitude,BANKED
0003B6 D???           01036     bra noupdateduty
0003B8 0600           01037     decf amplitude,BANKED
0003BA 010F           01038     banksel PWM3CON
0003BC 8FA5           01039     bsf PWM3CON,EN,BANKED ;turn on pwm if amplitude is high enough
0003BE                01040 noupdateduty:    
                      01041     ;if count1 is 15, set FSR0 and FSR1, and updateoffsets
0003BE 010?           01042     banksel count1
MPASM 5.77  /HOME/SCOTT/MPLABXPROJECTS/BATTL   8-10-2018  22:42:13         PAGE 22


LOC  OBJECT CODE     LINE SOURCE TEXT
  VALUE

0003C0 5100           01043     movf count1,w,BANKED
0003C2 080F           01044     sublw 0x0F
0003C4 E1??           01045     bnz noudoffset1
0003C6 0100           01046     banksel FSR0
0003C8 EE?? F0??      01047     lfsr FSR0,compships
0003CC EE?? F0??      01048     lfsr FSR1,offsettable
0003D0 EC?? F???      01049     call updateoffsets
0003D4                01050 noudoffset1:    
                      01051     ;if count1 is less than 15 and greater than 9, call updateoffsets
0003D4 010?           01052     banksel count1
0003D6 0E0F           01053     movlw 0x0F
0003D8 6100           01054     cpfslt count1,BANKED
0003DA D???           01055     bra noudoffset
0003DC 0E09           01056     movlw 0x09
0003DE 6500           01057     cpfsgt count1,BANKED
0003E0 D???           01058     bra noudoffset
0003E2 EC?? F???      01059     call updateoffsets
0003E6                01060 noudoffset:    
                      01061     ;handle mouse data at line 5
                      01062     ;banksel count1
                      01063     ;movf count1,w,BANKED
                      01064     ;sublw 0x05
                      01065     ;bnz noprcsmouse
                      01066     
                      01067     ;if mdone is set, get xpos and ypos, and mousebutton status
0003E6 010?           01068     banksel mdone
0003E8 A100           01069     btfss mdone,0,BANKED
0003EA D???           01070     bra framecountnotzero
                      01071     
                      01072     ;reset mdone
0003EC 6B00           01073     clrf mdone,BANKED
                      01074     
                      01075     ;get mousebutton status
0003EE 010?           01076     banksel mbutton
0003F0 6B00           01077     clrf mbutton,BANKED
0003F2 010?           01078     banksel byte1
0003F4 A100           01079     btfss byte1,0,BANKED
0003F6 D???           01080     bra nobutton
0003F8 010?           01081     banksel mbutton
0003FA 6900           01082     setf mbutton,BANKED
0003FC                01083 nobutton:    
                      01084     ;if we are even, handle xpos if xmotion is 1
0003FC 010?           01085     banksel byte2
0003FE 5100           01086     movf byte2,w,BANKED
000400 E0??           01087     bz xleft
000402 010?           01088     banksel xpos
000404 2A00           01089     incf xpos,BANKED
000406 010?           01090     banksel byte1
000408 A900           01091     btfss byte1,4,BANKED ;test xdir
00040A D???           01092     bra xleft
00040C 010?           01093     banksel xpos
00040E 0600           01094     decf xpos,BANKED
000410 0600           01095     decf xpos,BANKED
MPASM 5.77  /HOME/SCOTT/MPLABXPROJECTS/BATTL   8-10-2018  22:42:13         PAGE 23


LOC  OBJECT CODE     LINE SOURCE TEXT
  VALUE

000412                01096 xleft:
                      01097     
                      01098     ;if we are even, handle ypos if ymotion is 1
000412 010?           01099     banksel byte3
000414 5100           01100     movf byte3,w,BANKED 
000416 E0??           01101     bz ynoup
000418 010?           01102     banksel ypos
00041A 2A00           01103     incf ypos,BANKED
00041C 010?           01104     banksel byte1
00041E BB00           01105     btfsc byte1,5,BANKED ;test ydir
000420 D???           01106     bra ynoup
000422 010?           01107     banksel ypos
000424 0600           01108     decf ypos,BANKED
000426 0600           01109     decf ypos,BANKED
000428                01110 ynoup:    
                      01111     ;clear byte1,byte2, and byte3
000428 010?           01112     banksel byte1
00042A 6B00           01113     clrf byte1,BANKED
00042C 010?           01114     banksel byte2
00042E 6B00           01115     clrf byte2,BANKED
000430 010?           01116     banksel byte3
000432 6B00           01117     clrf byte3,BANKED
                      01118     
000434                01119 framecountnotzero:
                      01120     
                      01121     
                      01122     
                      01123     ;test  if framecount is equal to 32, move cursorx and cursory, and reset framecount
000434 010?           01124     banksel framecount
000436 5100           01125     movf framecount,w,BANKED
000438 0804           01126     sublw 0x04 ;4
00043A E1??           01127     bnz noprcsmouse
                      01128     
                      01129     ;if framecount is 16, get cursorx
                      01130     
                      01131     ;if cursorx <9 and xpos is >3 and less than 200, increment cursorx
00043C 010?           01132     banksel cursorx
00043E 0E09           01133     movlw 0x09
000440 6100           01134     cpfslt cursorx,BANKED
000442 D???           01135     bra noincx
000444 010?           01136     banksel xpos
000446 0E01           01137     movlw 0x01
000448 6500           01138     cpfsgt xpos,BANKED
00044A D???           01139     bra noincx
00044C 0EC8           01140     movlw 0xC8
00044E 60??           01141     cpfslt xpos
000450 D???           01142     bra noincx
000452 010?           01143     banksel cursorx
000454 EC?? F???      01144     call clearcursor
000458 010?           01145     banksel cursorx
00045A 2A00           01146     incf cursorx,BANKED
00045C EC?? F???      01147     call setcursor
                      01148     
MPASM 5.77  /HOME/SCOTT/MPLABXPROJECTS/BATTL   8-10-2018  22:42:13         PAGE 24


LOC  OBJECT CODE     LINE SOURCE TEXT
  VALUE

000460                01149 noincx:
                      01150     
                      01151     ;if cursorx is > 0 and xpos >252, decrement cursorx
000460 010?           01152     banksel cursorx
000462 0E00           01153     movlw 0x00
000464 6500           01154     cpfsgt cursorx,BANKED
000466 D???           01155     bra nodecx
000468 010?           01156     banksel xpos
00046A 0EFE           01157     movlw 0xFE ;254
00046C 6500           01158     cpfsgt xpos,BANKED
00046E D???           01159     bra nodecx
000470 010?           01160     banksel cursorx
000472 EC?? F???      01161     call clearcursor
000476 010?           01162     banksel cursorx
000478 0600           01163     decf cursorx,BANKED
00047A EC?? F???      01164     call setcursor
                      01165     
00047E                01166 nodecx:
                      01167     
                      01168   ;if cursory <9 and ypos is >3 and less than 200, increment cursory
00047E 010?           01169     banksel cursory
000480 0E09           01170     movlw 0x09
000482 6100           01171     cpfslt cursory,BANKED
000484 D???           01172     bra noincy
000486 010?           01173     banksel ypos
000488 0E01           01174     movlw 0x01
00048A 6500           01175     cpfsgt ypos,BANKED
00048C D???           01176     bra noincy
00048E 0EC8           01177     movlw 0xC8
000490 60??           01178     cpfslt ypos
000492 D???           01179     bra noincy
000494 010?           01180     banksel cursory
000496 EC?? F???      01181     call clearcursor
00049A 010?           01182     banksel cursory
00049C 2A00           01183     incf cursory,BANKED
00049E EC?? F???      01184     call setcursor
                      01185     
0004A2                01186 noincy:
                      01187     
                      01188     ;if cursory is > 0 and ypos >252, decrement cursory
0004A2 010?           01189     banksel cursory
0004A4 0E00           01190     movlw 0x00
0004A6 6500           01191     cpfsgt cursory,BANKED
0004A8 D???           01192     bra nodecy
0004AA 010?           01193     banksel ypos
0004AC 0EFE           01194     movlw 0xFE ;254
0004AE 6500           01195     cpfsgt ypos,BANKED
0004B0 D???           01196     bra nodecy
0004B2 010?           01197     banksel cursory
0004B4 EC?? F???      01198     call clearcursor
0004B8 010?           01199     banksel cursory
0004BA 0600           01200     decf cursory,BANKED
0004BC EC?? F???      01201     call setcursor
MPASM 5.77  /HOME/SCOTT/MPLABXPROJECTS/BATTL   8-10-2018  22:42:13         PAGE 25


LOC  OBJECT CODE     LINE SOURCE TEXT
  VALUE

                      01202     
0004C0                01203 nodecy:
                      01204     
                      01205     ;reset xpos and ypos
0004C0 010?           01206     banksel xpos
0004C2 6B00           01207     clrf xpos,BANKED
0004C4 010?           01208     banksel ypos
0004C6 6B00           01209     clrf ypos,BANKED
                      01210     
0004C8                01211 noprcsmouse:
                      01212     
                      01213     ;if count1 is five, handle framecount
0004C8 010?           01214     banksel count1
0004CA 5100           01215     movf count1,w,BANKED
0004CC 0805           01216     sublw 0x05
0004CE E1??           01217     bnz mousehandledone
                      01218     
                      01219     ;increment framecount
0004D0 010?           01220     banksel framecount
0004D2 2A00           01221     incf framecount,BANKED
                      01222     
                      01223     ;if framecount is 5, clear it
0004D4 5100           01224     movf framecount,w,BANKED
0004D6 0805           01225     sublw 0x05 ;5
0004D8 E1??           01226     bnz mousehandledone
                      01227     
0004DA 6B00           01228     clrf framecount,BANKED
                      01229         
0004DC                01230 mousehandledone:    
0004DC D???           01231     bra endline
                      01232     
                      01233 ;gap 
0004DE                01234 gap:
0004DE EC?? F???      01235     call horizline
0004E2 EC?? F???      01236     call clear
0004E6 D???           01237     bra endline
                      01238     
                      01239 ;draw testmessage
0004E8                01240 drawmessage:
0004E8 EC?? F???      01241     call horizline
                      01242     
                      01243      ;delay for blanking
0004EC 0E19           01244     movlw 0x19
0004EE 010?           01245     banksel count2
0004F0 6F00           01246     movwf count2,BANKED
0004F2                01247 blanking1:
0004F2 2F00           01248     decfsz count2,1,BANKED
0004F4 D???           01249     bra blanking1
                      01250     
                      01251     ;initialize messagepointer to linemod
0004F6 C??? F???      01252     movff linemod,messagepointer   
                      01253     
                      01254     ;turn on spi 
MPASM 5.77  /HOME/SCOTT/MPLABXPROJECTS/BATTL   8-10-2018  22:42:13         PAGE 26


LOC  OBJECT CODE     LINE SOURCE TEXT
  VALUE

0004FA 010F           01255     banksel SSP1CON1
0004FC 8B96           01256     bsf SSP1CON1,SSPEN,BANKED
                      01257     
                      01258     ;loop 10x for each character
0004FE 010?           01259     banksel count2
000500 0E0A           01260     movlw 0x0A
000502 6F00           01261     movwf count2,BANKED
000504                01262 messageloop:    
000504 010?           01263     banksel messagepointer
000506 4500           01264     rlncf messagepointer,w,BANKED 
000508 010F           01265     banksel PCL
00050A EC?? F???      01266     call testmessage
00050E 010F           01267     banksel SSP1BUF
000510 0AFF           01268     xorlw 0xFF ;invert wreg
                      01269     
000512 6F92           01270     movwf SSP1BUF,BANKED
                      01271     
                      01272     ;add 8 to messagepointer
000514 010?           01273     banksel messagepointer
000516 0E08           01274     movlw 0x08
000518 2700           01275     addwf messagepointer,1,BANKED
                      01276     
                      01277     ;wait for transmission to complete
00051A 010E           01278     banksel PIR3
00051C                01279 syncspim:
00051C A1CD           01280     btfss PIR3,SSP1IF,BANKED
00051E D???           01281     bra syncspim
000520 91CD           01282     bcf PIR3,SSP1IF,BANKED
                      01283     
000522 010?           01284     banksel count2
000524 2F00           01285     decfsz count2,1,BANKED
000526 D???           01286     bra messageloop
                      01287     
                      01288     ;turn off spi
000528 010F           01289     banksel SSP1CON1
00052A 9B96           01290     bcf SSP1CON1,SSPEN,BANKED
00052C 010F           01291     banksel LATC
00052E 8185           01292     bsf LATC,0,BANKED
                      01293     
                      01294     ;increment linemod
000530 010?           01295     banksel linemod
000532 2A00           01296     incf linemod,BANKED
                      01297     
                      01298     ;if linemod is 8, clear it
000534 5100           01299     movf linemod,w,BANKED
000536 0808           01300     sublw 0x08
000538 E1??           01301     bnz noclrmlinemod
00053A 6B00           01302     clrf linemod,BANKED
00053C                01303 noclrmlinemod:    
00053C D???           01304     bra endline
00053E                01305 vsync:
00053E EC?? F???      01306     call vertline
000542 EC?? F???      01307     call clear
MPASM 5.77  /HOME/SCOTT/MPLABXPROJECTS/BATTL   8-10-2018  22:42:13         PAGE 27


LOC  OBJECT CODE     LINE SOURCE TEXT
  VALUE

                      01308     
                      01309     ;if plyrmoveflag is set, and mousebutton is set, and count1 is 1, determine offset
                      01310     
000546 010?           01311     banksel plyrmoveflag
000548 5100           01312     movf plyrmoveflag,w,BANKED
00054A A100           01313     btfss plyrmoveflag,0,BANKED
00054C D???           01314     bra nooffset
00054E 010?           01315     banksel mbutton
000550 A100           01316     btfss mbutton,0,BANKED ;left mouse button
000552 D???           01317     bra nooffset
000554 010?           01318     banksel count1
000556 5100           01319     movf count1,w,BANKED
000558 0801           01320     sublw 0x01
00055A E1??           01321     bnz nooffset
                      01322     
                      01323     ;set FSR0 to compships+x+y*10
00055C EE?? F0??      01324     lfsr FSR0,compships
000560 010?           01325     banksel cursorx
000562 5100           01326     movf cursorx,w,BANKED
000564 010F           01327     banksel FSR0L
000566 27E9           01328     addwf FSR0L,1,BANKED
000568 0E0A           01329     movlw 0x0A
00056A 010?           01330     banksel cursory
00056C 0300           01331     mulwf cursory,BANKED
00056E 010F           01332     banksel PRODL
000570 51F3           01333     movf PRODL,w,BANKED
000572 010F           01334     banksel FSR0L
000574 27E9           01335     addwf FSR0L,1,BANKED
                      01336     
                      01337     ;set bit 4 of compships[y][x]
000576 89EF           01338     bsf INDF0,4,BANKED
                      01339     
                      01340     ;if indf0 bits 3..0 are non-zero:
                      01341     ;set amplitude for sound at 0x3B
000578 51EF           01342     movf INDF0,w,BANKED
00057A 0B0F           01343     andlw 0x0F
00057C E0??           01344     bz nooffset
00057E 0E3B           01345     movlw 0x3B
000580 010?           01346     banksel amplitude
000582 6F00           01347     movwf amplitude,BANKED
                      01348     
000584                01349 nooffset:    
                      01350     ;branch to noincfrm if count1 is not 2
000584 010?           01351     banksel count1
000586 5100           01352     movf count1,w,BANKED
000588 0802           01353     sublw 0x02
00058A E1??           01354     bnz noincfrm
                      01355     
                      01356     ;increment dispshipfrmcnt
00058C 010?           01357     banksel dispshipfrmcnt
00058E 2A00           01358     incf dispshipfrmcnt,BANKED
                      01359     
                      01360     ;if dispshipfrmcnt is equal to dispfrmthresh and dispplyrships is set, set plyrmoveflag, clear disps
MPASM 5.77  /HOME/SCOTT/MPLABXPROJECTS/BATTL   8-10-2018  22:42:13         PAGE 28


LOC  OBJECT CODE     LINE SOURCE TEXT
  VALUE

                            hipfrmcnt
000590 010?           01361     banksel dispshipfrmcnt
000592 5100           01362     movf dispshipfrmcnt,w,BANKED
000594 08EF           01363     sublw 0xEF
000596 E1??           01364     bnz noincfrm
                      01365     
000598 010?           01366     banksel dispplyrships
00059A A100           01367     btfss dispplyrships,0,BANKED
00059C D???           01368     bra noincfrm
                      01369     
00059E 010?           01370     banksel plyrmoveflag
0005A0 6900           01371     setf plyrmoveflag,BANKED
0005A2 010?           01372     banksel dispplyrships
0005A4 6B00           01373     clrf dispplyrships,BANKED
0005A6 010?           01374     banksel dispshipfrmcnt
0005A8 6B00           01375     clrf dispshipfrmcnt,BANKED
0005AA EC?? F???      01376     call clearoffsets
0005AE                01377 noincfrm:    
                      01378     
                      01379     ;if clroffsetflag is set, 
0005AE D???           01380     bra endline
                      01381     
0005B0                01382 horizequal:
0005B0 EC?? F???      01383     call horizline
0005B4 EC?? F???      01384     call clear
0005B8                01385 endline:
                      01386     
                      01387     ;decrement count1
0005B8 010?           01388     banksel count1
0005BA 0600           01389     decf count1,BANKED
                      01390     
                      01391     ;if count1 is 0, reload with new data and increment state
0005BC 010?           01392     banksel count1
0005BE 5100           01393     movf count1,w,BANKED
0005C0 E1??           01394     bnz endlinecont
0005C2 010?           01395     banksel state
0005C4 2A00           01396     incf state,BANKED    
0005C6 EC?? F???      01397     call getcount
0005CA 010?           01398     banksel count1
0005CC 6F00           01399     movwf count1,BANKED
0005CE                01400 endlinecont:
                      01401     
                      01402     ;if state is 6, clear it
0005CE 010?           01403     banksel state
0005D0 5100           01404     movf state,w,BANKED
0005D2 0806           01405     sublw 0x06
0005D4 E1??           01406     bnz endlinecont1
0005D6 6B00           01407     clrf state,BANKED
0005D8                01408 endlinecont1: 
                      01409     
                      01410  
                      01411    
0005D8 0012           01412    return
MPASM 5.77  /HOME/SCOTT/MPLABXPROJECTS/BATTL   8-10-2018  22:42:13         PAGE 29


LOC  OBJECT CODE     LINE SOURCE TEXT
  VALUE

                      01413    
                      01414 ;spit out a character
0005DA                01415 spitchar:
                      01416     
                      01417     ;set timer1 registers
0005DA 010F           01418     banksel TMR1H
0005DC 69CE           01419     setf TMR1H,BANKED
0005DE 0EC3           01420     movlw TMR1THRESH
0005E0 6FCD           01421     movwf TMR1L,BANKED
                      01422     
                      01423     ;clear PIR4,TMR1IF and set TMR register
0005E2 010E           01424     banksel PIR4
0005E4 91CE           01425     bcf PIR4,TMR1IF,BANKED
0005E6 010F           01426     banksel TMR1H
0005E8 69CE           01427     setf TMR1H,BANKED
0005EA 0EC3           01428     movlw TMR1THRESH
0005EC 6FCD           01429     movwf TMR1L,BANKED
                      01430     
                      01431     ;wait for transmission to complete
0005EE 010E           01432     banksel PIR3
0005F0                01433 syncspi:
0005F0 A1CD           01434     btfss PIR3,SSP1IF,BANKED
0005F2 D???           01435     bra syncspi
0005F4 91CD           01436     bcf PIR3,SSP1IF,BANKED
                      01437     
                      01438     ;spit out character
0005F6 010F           01439     banksel POSTINC0
0005F8 51EE           01440     movf POSTINC0,w,BANKED
0005FA 010?           01441     banksel linemod
0005FC 2500           01442     addwf linemod,w,BANKED
0005FE 010F           01443     banksel WREG
000600 45E8           01444     rlncf WREG,w,BANKED
000602 010F           01445     banksel PCL
000604 EC?? F???      01446     call getimage
                      01447     
                      01448     ;load SPI register
000608 010F           01449     banksel SSP1BUF
00060A 6F92           01450     movwf SSP1BUF,BANKED
                      01451     
                      01452     ;decrement spitcount
00060C 010?           01453     banksel spitcount
00060E 0600           01454     decf spitcount,BANKED
                      01455     
                      01456     ;if spitcount is 0:
000610 5100           01457     movf spitcount,w,BANKED
000612 E1??           01458     bnz spnotzero
                      01459     
                      01460     ;turn off timer 1
000614 010F           01461     banksel T1CON
000616 91CF           01462     bcf T1CON,0,BANKED
                      01463     
                      01464     ;load NUMCHARS into spitcount
000618 0E09           01465     movlw NUMCHARS
MPASM 5.77  /HOME/SCOTT/MPLABXPROJECTS/BATTL   8-10-2018  22:42:13         PAGE 30


LOC  OBJECT CODE     LINE SOURCE TEXT
  VALUE

00061A 6F00           01466     movwf spitcount,BANKED
                      01467     
                      01468     ;increment linemod
00061C 010?           01469     banksel linemod
00061E 2A00           01470     incf linemod,BANKED
                      01471     
                      01472     ;if linemod==8:
000620 5100           01473     movf linemod,w,BANKED
000622 0808           01474     sublw 0x08
000624 E1??           01475     bnz linemodnoteight
                      01476     
                      01477     ;clear linemod
000626 6B00           01478     clrf linemod,BANKED
                      01479     
                      01480     ;add 10 to index
000628 010?           01481     banksel index
00062A 0E0A           01482     movlw 0x0A
00062C 2700           01483     addwf index,1,BANKED
                      01484     
00062E                01485 linemodnoteight:
                      01486     
                      01487     ;turn off spi and set RC0
00062E 010F           01488     banksel SSP1CON1
000630 9B96           01489     bcf SSP1CON1,SSPEN,BANKED
000632 010F           01490     banksel LATC
000634 8085           01491     bsf LATC,0
                      01492     
000636                01493 spnotzero:   
000636 0012           01494     return
                      01495     
                      01496 ;clear index,linemod, and spitcount
000638                01497 clear:
                      01498     ;clear index,linemod,spitcount
000638 010?           01499     banksel index
00063A 6B00           01500     clrf index,BANKED
00063C 010?           01501     banksel linemod
00063E 6B00           01502     clrf linemod,BANKED
000640 010?           01503     banksel spitcount
000642 6B00           01504     clrf spitcount,BANKED
000644 0012           01505     return
                      01506     
                      01507 ;set the led
000646                01508 turnonled:
000646 010F           01509     banksel LATB
000648 9189           01510     bcf TRISB,0,BANKED
00064A 8184           01511     bsf LATB,0,BANKED
                      01512     
                      01513 ;clear the led
00064C                01514 turnoffled:
00064C 010F           01515     banksel LATB
00064E 9189           01516     bcf TRISB,0,BANKED
000650 9184           01517     bcf LATB,0,BANKED
                      01518     
MPASM 5.77  /HOME/SCOTT/MPLABXPROJECTS/BATTL   8-10-2018  22:42:13         PAGE 31


LOC  OBJECT CODE     LINE SOURCE TEXT
  VALUE

                      01519 ;set cursor
000652                01520 setcursor:
                      01521     
                      01522     ;return if plyrmoveflag is cleared
000652 010?           01523     banksel plyrmoveflag
000654 A100           01524     btfss plyrmoveflag,0,BANKED
000656 0012           01525     return
                      01526     
                      01527     ;fsr0 is tblstart+10*cursory+cursorx
000658 EE?? F0??      01528     lfsr FSR0,offsettable
00065C 010?           01529     banksel cursorx
00065E 5100           01530     movf cursorx,w,BANKED
000660 010F           01531     banksel FSR0L
000662 27E9           01532     addwf FSR0L,1,BANKED
000664 0E0A           01533     movlw 0x0A
000666 010?           01534     banksel cursory
000668 0300           01535     mulwf cursory,BANKED
00066A 010F           01536     banksel PRODL
00066C 51F3           01537     movf PRODL,w,BANKED
00066E 010F           01538     banksel FSR0L
000670 27E9           01539     addwf FSR0L,1,BANKED
                      01540     
000672 CFEF F???      01541     movff INDF0,cell
                      01542     
000676 0E10           01543     movlw 0x10
000678 010F           01544     banksel INDF0
00067A 6EEF           01545     movwf INDF0
                      01546     
00067C 0012           01547     return
                      01548     
                      01549 ;clear cursor
00067E                01550 clearcursor:
                      01551     
                      01552      ;return if plyrmoveflag is cleared
00067E 010?           01553     banksel plyrmoveflag
000680 A100           01554     btfss plyrmoveflag,0,BANKED
000682 0012           01555     return
                      01556     
                      01557    ;fsr0 is tblstart+10*cursory+cursorx
000684 EE?? F0??      01558     lfsr FSR0,offsettable
000688 010?           01559     banksel cursorx
00068A 5100           01560     movf cursorx,w,BANKED
00068C 010F           01561     banksel FSR0L
00068E 27E9           01562     addwf FSR0L,1,BANKED
000690 0E0A           01563     movlw 0x0A
000692 010?           01564     banksel cursory
000694 0300           01565     mulwf cursory,BANKED
000696 010F           01566     banksel PRODL
000698 51F3           01567     movf PRODL,w,BANKED
00069A 010F           01568     banksel FSR0L
00069C 27E9           01569     addwf FSR0L,1,BANKED
                      01570    
                      01571     ;move cell to INDF0
MPASM 5.77  /HOME/SCOTT/MPLABXPROJECTS/BATTL   8-10-2018  22:42:13         PAGE 32


LOC  OBJECT CODE     LINE SOURCE TEXT
  VALUE

00069E C??? FFEF      01572     movff cell,INDF0
                      01573     
0006A2 0012           01574     return 
                      01575     
                      01576 ;initialize the computer ships
0006A4                01577 initcomp:
                      01578    
                      01579     ;loop thru count from 5 to 1
0006A4 0E05           01580     movlw 0x05
0006A6 010?           01581     banksel count
0006A8 6F00           01582     movwf count,BANKED
0006AA                01583 initcomploop:
                      01584     
                      01585     ;get ship size
0006AA EC?? F???      01586     call getshipsize
                      01587     
                      01588     
0006AE                01589 shipcstrt:
                      01590     ;move 11 to randmod and get direction
0006AE 010?           01591     banksel randmod
0006B0 0E0B           01592     movlw 0x0B
0006B2 6F00           01593     movwf randmod,BANKED
0006B4 EC?? F???      01594     call random
0006B8 010?           01595     banksel direction
0006BA 6F00           01596     movwf direction,BANKED
                      01597     
0006BC                01598 shipcont1:    
                      01599     
                      01600     ;if direction is 0, up down:
                      01601     ;banksel direction
                      01602     ;btfsc direction,0,BANKED
                      01603     ;bra plyrlr
                      01604     
                      01605     ;if direction <5, up down
0006BC 0E05           01606     movlw 0x05
0006BE 010?           01607     banksel direction
0006C0 6500           01608     cpfsgt direction,BANKED
0006C2 D???           01609     bra complr
                      01610     
                      01611     ;we are up down. Set randmod to 10, and get x
0006C4 0E0A           01612     movlw 0x0A
0006C6 010?           01613     banksel randmod
0006C8 6F00           01614     movwf randmod,BANKED
0006CA EC?? F???      01615     call random
0006CE 010?           01616     banksel x
0006D0 6F00           01617     movwf x,BANKED
                      01618     
                      01619     ;set randmod to 11-shipsize, and get y
0006D2 0E0B           01620     movlw 0x0B
0006D4 010?           01621     banksel shipsize
0006D6 5500           01622     subfwb shipsize,w,BANKED
0006D8 010?           01623     banksel randmod
0006DA 6F00           01624     movwf randmod,BANKED
MPASM 5.77  /HOME/SCOTT/MPLABXPROJECTS/BATTL   8-10-2018  22:42:13         PAGE 33


LOC  OBJECT CODE     LINE SOURCE TEXT
  VALUE

0006DC EC?? F???      01625     call random
0006E0 010?           01626     banksel y
0006E2 6F00           01627     movwf y,BANKED
                      01628     
                      01629     ;FSR0 is playerships+10*y+x
0006E4 EE?? F0??      01630     lfsr FSR0,compships
0006E8 010?           01631     banksel x
0006EA 5100           01632     movf x,w,BANKED
0006EC 010F           01633     banksel FSR0L
0006EE 27E9           01634     addwf FSR0L,1,BANKED
0006F0 EC?? F???      01635     call incfsrh
0006F4 0E0A           01636     movlw 0x0A
0006F6 010?           01637     banksel y
0006F8 0300           01638     mulwf y,BANKED
0006FA 010F           01639     banksel PRODL
0006FC 51F3           01640     movf PRODL,w,BANKED
0006FE 010F           01641     banksel FSR0L
000700 27E9           01642     addwf FSR0L,1,BANKED  
000702 EC?? F???      01643     call incfsrh
                      01644     
                      01645     ;loop count1 from shipsize to 1
000706 C??? F???      01646     movff shipsize,count1
00070A                01647 comploopcnt1:   
                      01648     
00070A 010F           01649     banksel INDF0
00070C 51EF           01650     movf INDF0,w,BANKED
00070E E1??           01651     bnz shipcstrt
                      01652     
                      01653     ;add 10 to FSR0L if playerships[x][y] is 0
000710 0E0A           01654     movlw 0x0A
000712 010F           01655     banksel FSR0L
000714 27E9           01656     addwf FSR0L,1,BANKED
000716 EC?? F???      01657     call incfsrh
                      01658     
00071A 010?           01659     banksel count1
00071C 2F00           01660     decfsz count1,1,BANKED
00071E D???           01661     bra comploopcnt1
                      01662     
                      01663     ;end of loop.
                      01664    
                      01665     ;subtract 10*shipsize from FSR0L
000720 0E0A           01666     movlw 0x0A
000722 010?           01667     banksel shipsize
000724 0300           01668     mulwf shipsize,BANKED
000726 010F           01669     banksel PRODL
000728 51F3           01670     movf PRODL,w,BANKED
00072A 5FE9           01671     subwf FSR0L,1,BANKED
                      01672     
                      01673     ;loop again with count1 from shipsize to 1
00072C C??? F???      01674     movff shipsize,count1
000730                01675 comploopcnt2:
                      01676     
                      01677     ;move shipsize to INDF0
MPASM 5.77  /HOME/SCOTT/MPLABXPROJECTS/BATTL   8-10-2018  22:42:13         PAGE 34


LOC  OBJECT CODE     LINE SOURCE TEXT
  VALUE

000730 C??? FFEF      01678     movff shipsize,INDF0
                      01679     
                      01680     ;add 10 to FSR0L
000734 0E0A           01681     movlw 0x0A
000736 010F           01682     banksel FSR0L
000738 27E9           01683     addwf FSR0L,1,BANKED
                      01684     
00073A 010?           01685     banksel count1
00073C 2F00           01686     decfsz count1,1,BANKED
00073E D???           01687     bra comploopcnt2
                      01688     
                      01689     ;end second updown loop
000740 D???           01690     bra endcomploop
                      01691     
000742                01692 complr:
                      01693     
                      01694     ;randmod is 11-shipsize, then call random to get x
000742 0E0B           01695     movlw 0x0B
000744 010?           01696     banksel shipsize
000746 5500           01697     subfwb shipsize,w,BANKED
000748 010?           01698     banksel randmod
00074A 6F00           01699     movwf randmod,BANKED
00074C EC?? F???      01700     call random
000750 010?           01701     banksel x
000752 6F00           01702     movwf x,BANKED
                      01703 
                      01704     ;set randmod to 10, use random to get y
000754 0E0A           01705     movlw 0x0A
000756 010?           01706     banksel randmod
000758 6F00           01707     movwf randmod,BANKED
00075A EC?? F???      01708     call random
00075E 010?           01709     banksel y
000760 6F00           01710     movwf y,BANKED
                      01711     
                      01712     ;FSR0 is playerships+10*y+x
000762 EE?? F0??      01713     lfsr FSR0,compships
000766 010?           01714     banksel x
000768 5100           01715     movf x,w,BANKED
00076A 010F           01716     banksel FSR0L
00076C 27E9           01717     addwf FSR0L,1,BANKED
00076E 0E0A           01718     movlw 0x0A
000770 010?           01719     banksel y
000772 0300           01720     mulwf y,BANKED
000774 010F           01721     banksel PRODL
000776 51F3           01722     movf PRODL,w,BANKED
000778 010F           01723     banksel FSR0L
00077A 27E9           01724     addwf FSR0L,1,BANKED
                      01725     
                      01726     ;loop thru count1 from shipsize to 1
00077C C??? F???      01727     movff shipsize,count1
000780                01728 complrloop1:
                      01729     
                      01730     ;if postinc0 > 0, bra shippstrt
MPASM 5.77  /HOME/SCOTT/MPLABXPROJECTS/BATTL   8-10-2018  22:42:13         PAGE 35


LOC  OBJECT CODE     LINE SOURCE TEXT
  VALUE

000780 010F           01731     banksel POSTINC0
000782 51EE           01732     movf POSTINC0,w,BANKED
000784 E1??           01733     bnz shipcstrt
                      01734     
000786 010?           01735     banksel count1
000788 2F00           01736     decfsz count1,1,BANKED
00078A D???           01737     bra complrloop1
                      01738     ;end plyrlrloop1
                      01739     
                      01740     ;subtract shipsize from FSR0
00078C 010?           01741     banksel shipsize
00078E 5100           01742     movf shipsize,w,BANKED
000790 010F           01743     banksel FSR0L
000792 5FE9           01744     subwf FSR0L,1,BANKED
                      01745    
                      01746     
                      01747     
                      01748     ;loop count1 from shipsize to 1 again
000794 C??? F???      01749     movff shipsize,count1
000798                01750 complrloop2:
                      01751     
                      01752     ;postinc is equal to shipsize
000798 C??? FFEE      01753     movff shipsize,POSTINC0
                      01754     
00079C 010?           01755     banksel count1
00079E 2F00           01756     decfsz count1,1,BANKED
0007A0 D???           01757     bra complrloop2    
                      01758     
0007A2                01759 endcomploop:    
0007A2 010?           01760     banksel count
0007A4 2F00           01761     decfsz count,1,BANKED
0007A6 D???           01762     bra initcomploop
                      01763     
0007A8 0012           01764  return ;return from player ship placement   
                      01765     
                      01766     
                      01767 ;initialize the player's ships
0007AA                01768 initplayer:
                      01769     
                      01770     ;loop thru count from 5 to 1
0007AA 0E05           01771     movlw 0x05
0007AC 010?           01772     banksel count
0007AE 6F00           01773     movwf count,BANKED
0007B0                01774 initplayerloop:
                      01775     
                      01776     ;get ship size
0007B0 EC?? F???      01777     call getshipsize
                      01778     
                      01779     
0007B4                01780 shippstrt:
                      01781     ;move 11 to randmod and get direction
0007B4 010?           01782     banksel randmod
0007B6 0E0B           01783     movlw 0x0B
MPASM 5.77  /HOME/SCOTT/MPLABXPROJECTS/BATTL   8-10-2018  22:42:13         PAGE 36


LOC  OBJECT CODE     LINE SOURCE TEXT
  VALUE

0007B8 6F00           01784     movwf randmod,BANKED
0007BA EC?? F???      01785     call random
0007BE 010?           01786     banksel direction
0007C0 6F00           01787     movwf direction,BANKED
                      01788     
0007C2                01789 shipcont:    
                      01790     
                      01791     ;if direction is 0, up down:
                      01792     ;banksel direction
                      01793     ;btfsc direction,0,BANKED
                      01794     ;bra plyrlr
                      01795     
                      01796     ;if direction <5, up down
0007C2 0E05           01797     movlw 0x05
0007C4 010?           01798     banksel direction
0007C6 6500           01799     cpfsgt direction,BANKED
0007C8 D???           01800     bra plyrlr
                      01801     
                      01802     ;we are up down. Set randmod to 10, and get x
0007CA 0E0A           01803     movlw 0x0A
0007CC 010?           01804     banksel randmod
0007CE 6F00           01805     movwf randmod,BANKED
0007D0 EC?? F???      01806     call random
0007D4 010?           01807     banksel x
0007D6 6F00           01808     movwf x,BANKED
                      01809     
                      01810     ;set randmod to 11-shipsize, and get y
0007D8 0E0B           01811     movlw 0x0B
0007DA 010?           01812     banksel shipsize
0007DC 5500           01813     subfwb shipsize,w,BANKED
0007DE 010?           01814     banksel randmod
0007E0 6F00           01815     movwf randmod,BANKED
0007E2 EC?? F???      01816     call random
0007E6 010?           01817     banksel y
0007E8 6F00           01818     movwf y,BANKED
                      01819     
                      01820     ;FSR0 is playerships+10*y+x
0007EA EE?? F0??      01821     lfsr FSR0,playerships
0007EE 010?           01822     banksel x
0007F0 5100           01823     movf x,w,BANKED
0007F2 010F           01824     banksel FSR0L
0007F4 27E9           01825     addwf FSR0L,1,BANKED
0007F6 EC?? F???      01826     call incfsrh
0007FA 0E0A           01827     movlw 0x0A
0007FC 010?           01828     banksel y
0007FE 0300           01829     mulwf y,BANKED
000800 010F           01830     banksel PRODL
000802 51F3           01831     movf PRODL,w,BANKED
000804 010F           01832     banksel FSR0L
000806 27E9           01833     addwf FSR0L,1,BANKED  
000808 EC?? F???      01834     call incfsrh
                      01835     
                      01836     ;loop count1 from shipsize to 1
MPASM 5.77  /HOME/SCOTT/MPLABXPROJECTS/BATTL   8-10-2018  22:42:13         PAGE 37


LOC  OBJECT CODE     LINE SOURCE TEXT
  VALUE

00080C C??? F???      01837     movff shipsize,count1
000810                01838 plyrloopcnt1:   
                      01839     
000810 010F           01840     banksel INDF0
000812 51EF           01841     movf INDF0,w,BANKED
000814 E1??           01842     bnz shippstrt
                      01843     
                      01844     ;add 10 to FSR0L if playerships[x][y] is 0
000816 0E0A           01845     movlw 0x0A
000818 010F           01846     banksel FSR0L
00081A 27E9           01847     addwf FSR0L,1,BANKED
00081C EC?? F???      01848     call incfsrh
                      01849     
000820 010?           01850     banksel count1
000822 2F00           01851     decfsz count1,1,BANKED
000824 D???           01852     bra plyrloopcnt1
                      01853     
                      01854     ;end of loop.
                      01855    
                      01856     ;subtract 10*shipsize from FSR0L
000826 0E0A           01857     movlw 0x0A
000828 010?           01858     banksel shipsize
00082A 0300           01859     mulwf shipsize,BANKED
00082C 010F           01860     banksel PRODL
00082E 51F3           01861     movf PRODL,w,BANKED
000830 5FE9           01862     subwf FSR0L,1,BANKED
                      01863     
                      01864     ;Set FSR1 with offsettable
000832 EC?? F???      01865     call setfsr1
                      01866     
                      01867     
                      01868     ;loop again with count1 from shipsize to 1
000836 C??? F???      01869     movff shipsize,count1
00083A                01870 plyrloopcnt2:
                      01871     
                      01872     ;move shipsize to INDF0
00083A C??? FFEF      01873     movff shipsize,INDF0
                      01874     
                      01875     ;move 16 into INDF1
00083E 0E10           01876     movlw 0x10
000840 010F           01877     banksel INDF1
000842 6FE7           01878     movwf INDF1,BANKED
                      01879     
                      01880     ;add 10 to FSR0L and FSR1L
000844 0E0A           01881     movlw 0x0A
000846 010F           01882     banksel FSR0L
000848 27E9           01883     addwf FSR0L,1,BANKED
00084A 27E1           01884     addwf FSR1L,1,BANKED
                      01885     
00084C 010?           01886     banksel count1
00084E 2F00           01887     decfsz count1,1,BANKED
000850 D???           01888     bra plyrloopcnt2
                      01889     
MPASM 5.77  /HOME/SCOTT/MPLABXPROJECTS/BATTL   8-10-2018  22:42:13         PAGE 38


LOC  OBJECT CODE     LINE SOURCE TEXT
  VALUE

                      01890     ;end second updown loop
000852 D???           01891     bra endplyrloop
                      01892     
000854                01893 plyrlr:
                      01894     
                      01895     ;randmod is 11-shipsize, then call random to get x
000854 0E0B           01896     movlw 0x0B
000856 010?           01897     banksel shipsize
000858 5500           01898     subfwb shipsize,w,BANKED
00085A 010?           01899     banksel randmod
00085C 6F00           01900     movwf randmod,BANKED
00085E EC?? F???      01901     call random
000862 010?           01902     banksel x
000864 6F00           01903     movwf x,BANKED
                      01904 
                      01905     ;set randmod to 10, use random to get y
000866 0E0A           01906     movlw 0x0A
000868 010?           01907     banksel randmod
00086A 6F00           01908     movwf randmod,BANKED
00086C EC?? F???      01909     call random
000870 010?           01910     banksel y
000872 6F00           01911     movwf y,BANKED
                      01912     
                      01913     ;FSR0 is playerships+10*y+x
000874 EE?? F0??      01914     lfsr FSR0,playerships
000878 010?           01915     banksel x
00087A 5100           01916     movf x,w,BANKED
00087C 010F           01917     banksel FSR0L
00087E 27E9           01918     addwf FSR0L,1,BANKED
000880 0E0A           01919     movlw 0x0A
000882 010?           01920     banksel y
000884 0300           01921     mulwf y,BANKED
000886 010F           01922     banksel PRODL
000888 51F3           01923     movf PRODL,w,BANKED
00088A 010F           01924     banksel FSR0L
00088C 27E9           01925     addwf FSR0L,1,BANKED
                      01926     
                      01927     ;loop thru count1 from shipsize to 1
00088E C??? F???      01928     movff shipsize,count1
000892                01929 plyrlrloop1:
                      01930     
                      01931     ;if postinc0 > 0, bra shippstrt
000892 010F           01932     banksel POSTINC0
000894 51EE           01933     movf POSTINC0,w,BANKED
000896 E1??           01934     bnz shippstrt
                      01935     
000898 010?           01936     banksel count1
00089A 2F00           01937     decfsz count1,1,BANKED
00089C D???           01938     bra plyrlrloop1
                      01939     ;end plyrlrloop1
                      01940     
                      01941     ;subtract shipsize from FSR0
00089E 010?           01942     banksel shipsize
MPASM 5.77  /HOME/SCOTT/MPLABXPROJECTS/BATTL   8-10-2018  22:42:13         PAGE 39


LOC  OBJECT CODE     LINE SOURCE TEXT
  VALUE

0008A0 5100           01943     movf shipsize,w,BANKED
0008A2 010F           01944     banksel FSR0L
0008A4 5FE9           01945     subwf FSR0L,1,BANKED
                      01946     
                      01947     ;set FSR1 with offsettable
0008A6 EC?? F???      01948     call setfsr1
                      01949     
                      01950     
                      01951     ;loop count1 from shipsize to 1 again
0008AA C??? F???      01952     movff shipsize,count1
0008AE                01953 plyrlrloop2:
                      01954     
                      01955     ;postinc is equal to shipsize
0008AE C??? FFEE      01956     movff shipsize,POSTINC0
                      01957     
                      01958     ;postinc1 is equal to 16
0008B2 0E10           01959     movlw 0x10
0008B4 010F           01960     banksel POSTINC1
0008B6 6FE6           01961     movwf POSTINC1,BANKED
                      01962     
0008B8 010?           01963     banksel count1
0008BA 2F00           01964     decfsz count1,1,BANKED
0008BC D???           01965     bra plyrlrloop2    
                      01966     
0008BE                01967 endplyrloop:    
0008BE 010?           01968     banksel count
0008C0 2F00           01969     decfsz count,1,BANKED
0008C2 D???           01970     bra initplayerloop
                      01971     
0008C4 0012           01972  return ;return from player ship placement
                      01973  
                      01974  ;random number generator
Warning[207]: Found label after column 1. (random)
0008C6                01975  random:
                      01976     ;movlw 0x64 ;multiply by 100
                      01977     ;mulwf rand,BANKED
                      01978     ;banksel PRODL
                      01979     ;movff PRODL,rand
                      01980     ;movf PRODL,w,BANKED
                      01981     
0008C6 010?           01982     banksel rand
0008C8 A100           01983     btfss rand,0,BANKED
0008CA D???           01984     bra randlsb0
0008CC 4300           01985     rrncf rand,1,BANKED
0008CE 9F00           01986     bcf rand,7,BANKED
0008D0 5100           01987     movf rand,w,BANKED
0008D2 0AB8           01988     xorlw 0xB8
0008D4 6F00           01989     movwf rand,BANKED
0008D6 D???           01990     bra moverand
0008D8                01991 randlsb0:    
0008D8 4300           01992     rrncf rand,1,BANKED
0008DA 9F00           01993     bcf rand,7,BANKED
0008DC                01994 moverand:
MPASM 5.77  /HOME/SCOTT/MPLABXPROJECTS/BATTL   8-10-2018  22:42:13         PAGE 40


LOC  OBJECT CODE     LINE SOURCE TEXT
  VALUE

0008DC 010?           01995      banksel rand
0008DE 5100           01996     movf rand,w,BANKED
                      01997     ;keep subtracting randmod until wreg < randmod
0008E0                01998 modstart:
0008E0 010?           01999     banksel randmod
0008E2 6100           02000     cpfslt randmod, BANKED
0008E4 D???           02001     bra moddone
0008E6 5500           02002     subfwb randmod,w,BANKED
0008E8 D???           02003     bra modstart
0008EA                02004 moddone:
                      02005     ;if wreg == randmod, clear wreg
0008EA 6300           02006     cpfseq randmod,BANKED
0008EC D???           02007     bra noextramod
0008EE 010F           02008     banksel WREG
0008F0 6BE8           02009     clrf WREG,BANKED
0008F2                02010 noextramod:    
0008F2 0012           02011     return
                      02012     
                      02013 ;random seed generation
0008F4                02014 seed:
0008F4 010F           02015     banksel ADCON0
0008F6 8060           02016     bsf ADCON0,ADGO
0008F8                02017 waitadc:
0008F8 B060           02018     btfsc ADCON0,ADGO
0008FA D???           02019     bra waitadc
0008FC CF63 F???      02020     movff ADRESL,rand
                      02021  
                      02022     ;if rand is 0, put 2D into it
000900 010?           02023     banksel rand
000902 5100           02024     movf rand,w,BANKED
000904 E1??           02025     bnz nosetrand
000906 0E2D           02026     movlw 0x2D
000908 6F00           02027     movwf rand,BANKED
00090A                02028 nosetrand:    
00090A 0012           02029     return    
                      02030 
                      02031 ;clear the player board
00090C                02032 clearplayer:
                      02033     
                      02034     ;loop count from 100 to 1
00090C 0E64           02035     movlw 0x64
00090E 010?           02036     banksel count
000910 6F00           02037     movwf count,BANKED
000912 EE?? F0??      02038     lfsr FSR0,playerships ;init FSR0
000916                02039 clrplyrloop:
000916 010F           02040     banksel POSTINC0
000918 6BEE           02041     clrf POSTINC0,BANKED
                      02042     
00091A 010?           02043     banksel count
00091C 2F00           02044     decfsz count,1,BANKED
00091E D???           02045     bra clrplyrloop
                      02046     
000920 0012           02047     return
MPASM 5.77  /HOME/SCOTT/MPLABXPROJECTS/BATTL   8-10-2018  22:42:13         PAGE 41


LOC  OBJECT CODE     LINE SOURCE TEXT
  VALUE

                      02048     
                      02049 ;clear the computer's ships, compships
000922                02050 clearcomp:
                      02051   ;loop count from 100 to 1
000922 0E64           02052     movlw 0x64
000924 010?           02053     banksel count
000926 6F00           02054     movwf count,BANKED
000928 EE?? F0??      02055     lfsr FSR0,compships ;init FSR0
00092C                02056 clrcomploop:
00092C 010F           02057     banksel POSTINC0
00092E 6BEE           02058     clrf POSTINC0,BANKED
                      02059     
000930 010?           02060     banksel count
000932 2F00           02061     decfsz count,1,BANKED
000934 D???           02062     bra clrcomploop
                      02063     
000936 0012           02064     return   
                      02065     
                      02066 ;inc fsrh
000938                02067 incfsrh:
000938 E3??           02068     bnc nto
00093A 010F           02069     banksel LATB
00093C 8184           02070     bsf LATB,0,BANKED
00093E                02071 nto:    
00093E 010F           02072     banksel WREG
000940 6BE8           02073     clrf WREG,BANKED
000942 010F           02074     banksel FSR0H
000944 23EA           02075     addwfc FSR0H,1,BANKED
000946 0012           02076     return
                      02077     
                      02078 ;get the ship size
000948                02079 getshipsize:
                      02080     
                      02081     ;if count is 5, shipsize is 5
000948 010?           02082     banksel count
00094A 5100           02083     movf count,w,BANKED
00094C 0805           02084     sublw 0x05
00094E E1??           02085     bnz gssnot5
000950 0E05           02086     movlw 0x05
000952 010?           02087     banksel shipsize
000954 6F00           02088     movwf shipsize,BANKED
000956 0012           02089     return
000958                02090 gssnot5:
                      02091     ;if count is 4, shipsize is 4
000958 010?           02092     banksel count
00095A 5100           02093     movf count,w,BANKED
00095C 0804           02094     sublw 0x04
00095E E1??           02095     bnz gssnot4
000960 0E04           02096     movlw 0x04
000962 010?           02097     banksel shipsize
000964 6F00           02098     movwf shipsize,BANKED
000966 0012           02099     return
                      02100     
MPASM 5.77  /HOME/SCOTT/MPLABXPROJECTS/BATTL   8-10-2018  22:42:13         PAGE 42


LOC  OBJECT CODE     LINE SOURCE TEXT
  VALUE

000968                02101 gssnot4:
                      02102     ;if count is 3, shipsize is 3
000968 010?           02103     banksel count
00096A 5100           02104     movf count,w,BANKED
00096C 0803           02105     sublw 0x03
00096E E1??           02106     bnz gssnot3
000970 0E03           02107     movlw 0x03
000972 010?           02108     banksel shipsize
000974 6F00           02109     movwf shipsize,BANKED
000976 0012           02110     return
000978                02111 gssnot3:
                      02112     ;if count is 2, shipsize is 3
000978 010?           02113     banksel count
00097A 5100           02114     movf count,w,BANKED
00097C 0802           02115     sublw 0x02
00097E E1??           02116     bnz gssnot2
000980 0E03           02117     movlw 0x03
000982 010?           02118     banksel shipsize
000984 6F00           02119     movwf shipsize,BANKED
000986 0012           02120     return
000988                02121 gssnot2:
                      02122     ;if count is 1, shipsize is 2
000988 0E02           02123     movlw 0x02
00098A 010?           02124     banksel shipsize
00098C 6F00           02125     movwf shipsize,BANKED
00098E 0012           02126     return
                      02127     
                      02128 ;set fsr1 to offsettable+10*y+x
000990                02129 setfsr1:
000990 EE?? F0??      02130     lfsr FSR1,offsettable
000994 010?           02131     banksel x
000996 5100           02132     movf x,w,BANKED
000998 010F           02133     banksel FSR1L
00099A 27E1           02134     addwf FSR1L,1,BANKED
00099C EC?? F???      02135     call incfsr1h
0009A0 0E0A           02136     movlw 0x0A
0009A2 010?           02137     banksel y
0009A4 0300           02138     mulwf y,BANKED
0009A6 010F           02139     banksel PRODL
0009A8 51F3           02140     movf PRODL,w,BANKED
0009AA 010F           02141     banksel FSR1L
0009AC 27E1           02142     addwf FSR1L,1,BANKED
0009AE EC?? F???      02143     call incfsr1h
0009B2 0012           02144     return
                      02145     
                      02146 ;increment fsr1h if carry
0009B4                02147 incfsr1h:
0009B4 E3??           02148     bnc incfsrhcont
0009B6 010F           02149     banksel FSR1H
0009B8 2AE2           02150     incf FSR1H,BANKED
0009BA                02151 incfsrhcont:
0009BA 0012           02152     return
                      02153     
MPASM 5.77  /HOME/SCOTT/MPLABXPROJECTS/BATTL   8-10-2018  22:42:13         PAGE 43


LOC  OBJECT CODE     LINE SOURCE TEXT
  VALUE

                      02154 ;update the offset table
0009BC                02155 clearoffsets:
0009BC EE?? F0??      02156     lfsr FSR0,offsettable
0009C0 0E14           02157     movlw 0x14
0009C2 010?           02158     banksel clroffsetcnt
0009C4 6F00           02159     movwf clroffsetcnt,BANKED
0009C6                02160 clroffsetloop:
0009C6 010F           02161     banksel POSTINC0
0009C8 6BEE           02162     clrf POSTINC0,BANKED
0009CA 6BEE           02163     clrf POSTINC0,BANKED
0009CC 6BEE           02164     clrf POSTINC0,BANKED
0009CE 6BEE           02165     clrf POSTINC0,BANKED
0009D0 6BEE           02166     clrf POSTINC0,BANKED
0009D2 010?           02167     banksel clroffsetcnt
0009D4 2F00           02168     decfsz clroffsetcnt,1,BANKED
0009D6 D???           02169     bra clroffsetloop
0009D8 0012           02170     return
                      02171     
                      02172 ;update the offset table
0009DA                02173 updateoffsets:
0009DA 0E14           02174     movlw 0x14 ;20 cycles
0009DC 010?           02175     banksel udoffsetcnt
0009DE 6F00           02176     movwf udoffsetcnt,BANKED
0009E0                02177 udoffsetloop:
                      02178     ;if POSTINC0 bit 4 is set:
0009E0 010F           02179     banksel INDF0
0009E2 A9EF           02180     btfss INDF0,4,BANKED
0009E4 D???           02181     bra notry
0009E6 0E10           02182     movlw 0x10 ; hit
0009E8 6FE7           02183     movwf INDF1,BANKED
0009EA 51EF           02184     movf INDF0,w,BANKED
0009EC 0B0F           02185     andlw 0x0F
0009EE E1??           02186     bnz notry
0009F0 0E08           02187     movlw 0x08 ;miss
0009F2 6FE7           02188     movwf INDF1,BANKED
0009F4                02189 notry:     
0009F4 010F           02190     banksel FSR0L
0009F6 2AE9           02191     incf FSR0L,BANKED
0009F8 2AE1           02192     incf FSR1L,BANKED
                      02193     
0009FA 010?           02194     banksel udoffsetcnt
0009FC 2F00           02195     decfsz udoffsetcnt,1,BANKED
0009FE D???           02196     bra udoffsetloop
000A00 0012           02197     return
                      02198 
Warning[205]: Found directive in column 1. (CODE)
                      02199 CODE 0x2000
002000                02200 testmessage:
002000 CFF9 F???      02201     movff PCL,tmp
002004 27F9           02202     addwf PCL,1,BANKED
                      02203     ;A
002006 0C3C           02204     retlw b'00111100'
002008 0C24           02205     retlw b'00100100'
MPASM 5.77  /HOME/SCOTT/MPLABXPROJECTS/BATTL   8-10-2018  22:42:13         PAGE 44


LOC  OBJECT CODE     LINE SOURCE TEXT
  VALUE

00200A 0C24           02206   retlw   b'00100100'
00200C 0C3C           02207   retlw   b'00111100'
00200E 0C24           02208   retlw   b'00100100'
002010 0C24           02209   retlw   b'00100100'
002012 0C24           02210   retlw   b'00100100'
002014 0C24           02211   retlw   b'00100100'
                      02212 
                      02213 ;B
002016 0C38           02214   retlw b'00111000'
002018 0C24           02215   retlw b'00100100'
00201A 0C24           02216   retlw b'00100100'
00201C 0C38           02217   retlw b'00111000'
00201E 0C24           02218   retlw b'00100100'
002020 0C24           02219   retlw b'00100100'
002022 0C24           02220   retlw b'00100100'
002024 0C38           02221   retlw b'00111000'
                      02222 
                      02223 ;C
002026 0C3C           02224   retlw b'00111100'
002028 0C20           02225   retlw b'00100000'
00202A 0C20           02226   retlw b'00100000'
00202C 0C20           02227   retlw b'00100000'
00202E 0C20           02228   retlw b'00100000'
002030 0C20           02229   retlw b'00100000'
002032 0C20           02230   retlw b'00100000'
002034 0C3C           02231   retlw b'00111100'
                      02232 
                      02233 ;D
002036 0C38           02234   retlw b'00111000'
002038 0C24           02235   retlw b'00100100'
00203A 0C24           02236   retlw b'00100100'
00203C 0C24           02237   retlw b'00100100'
00203E 0C24           02238   retlw b'00100100'
002040 0C24           02239   retlw b'00100100'
002042 0C24           02240   retlw b'00100100'
002044 0C38           02241   retlw b'00111000'
                      02242 
                      02243 ;E
002046 0C3C           02244   retlw b'00111100'
002048 0C20           02245   retlw b'00100000'
00204A 0C20           02246   retlw b'00100000'
00204C 0C20           02247   retlw b'00100000'
00204E 0C3C           02248   retlw b'00111100'
002050 0C20           02249   retlw b'00100000'
002052 0C20           02250   retlw b'00100000'
002054 0C3C           02251   retlw b'00111100'
                      02252   
                      02253 ;space
002056 0C00           02254   retlw 0x00
002058 0C00           02255   retlw 0x00
00205A 0C00           02256   retlw 0x00
00205C 0C00           02257   retlw 0x00
00205E 0C00           02258   retlw 0x00
MPASM 5.77  /HOME/SCOTT/MPLABXPROJECTS/BATTL   8-10-2018  22:42:13         PAGE 45


LOC  OBJECT CODE     LINE SOURCE TEXT
  VALUE

002060 0C00           02259   retlw 0x00
002062 0C00           02260   retlw 0x00
002064 0C00           02261   retlw 0x00
                      02262   
                      02263 ;space
002066 0C00           02264   retlw 0x00
002068 0C00           02265   retlw 0x00
00206A 0C00           02266   retlw 0x00
00206C 0C00           02267   retlw 0x00
00206E 0C00           02268   retlw 0x00
002070 0C00           02269   retlw 0x00
002072 0C00           02270   retlw 0x00
002074 0C00           02271   retlw 0x00
                      02272   
                      02273 ;space
002076 0C00           02274   retlw 0x00
002078 0C00           02275   retlw 0x00
00207A 0C00           02276   retlw 0x00
00207C 0C00           02277   retlw 0x00
00207E 0C00           02278   retlw 0x00
002080 0C00           02279   retlw 0x00
002082 0C00           02280   retlw 0x00
002084 0C00           02281   retlw 0x00
                      02282   
                      02283 ;space
002086 0C00           02284   retlw 0x00
002088 0C00           02285   retlw 0x00
00208A 0C00           02286   retlw 0x00
00208C 0C00           02287   retlw 0x00
00208E 0C00           02288   retlw 0x00
002090 0C00           02289   retlw 0x00
002092 0C00           02290   retlw 0x00
002094 0C00           02291   retlw 0x00
                      02292   
                      02293 ;space
002096 0C00           02294   retlw 0x00
002098 0C00           02295   retlw 0x00
00209A 0C00           02296   retlw 0x00
00209C 0C00           02297   retlw 0x00
00209E 0C00           02298   retlw 0x00
0020A0 0C00           02299   retlw 0x00
0020A2 0C00           02300   retlw 0x00
0020A4 0C00           02301   retlw 0x00
                      02302   
                      02303 ;load pwm3dch with random value, modded at 0x20
0020A6                02304 loadpwm:
0020A6 0E20           02305     movlw 0x20
0020A8 010?           02306     banksel randmod
0020AA 6F00           02307     movwf randmod,BANKED
0020AC EC?? F???      02308     call random
0020B0 010F           02309     banksel PWM3DCH
0020B2 6FA4           02310     movwf PWM3DCH,BANKED
0020B4 0012           02311     return
MPASM 5.77  /HOME/SCOTT/MPLABXPROJECTS/BATTL   8-10-2018  22:42:13         PAGE 46


LOC  OBJECT CODE     LINE SOURCE TEXT
  VALUE

                      02312   end
MPASM 5.77  /HOME/SCOTT/MPLABXPROJECTS/BATTL   8-10-2018  22:42:13         PAGE 47


SYMBOL TABLE
  LABEL                             VALUE 

A                                 00000000
ABDEN                             00000000
ABDOVF                            00000007
ACC0                              00000000
ACC1                              00000001
ACC10                             00000002
ACC11                             00000003
ACC12                             00000004
ACC13                             00000005
ACC14                             00000006
ACC15                             00000007
ACC2                              00000002
ACC3                              00000003
ACC4                              00000004
ACC5                              00000005
ACC6                              00000006
ACC7                              00000007
ACC8                              00000000
ACC9                              00000001
ACCESS                            00000000
ACCM                              00000004
ACKDT                             00000005
ACKEN                             00000004
ACKSTAT                           00000006
ACKTIM                            00000007
ADACC                             00000F70
ADACC0                            00000000
ADACC1                            00000001
ADACC10                           00000002
ADACC11                           00000003
ADACC12                           00000004
ADACC13                           00000005
ADACC14                           00000006
ADACC15                           00000007
ADACC2                            00000002
ADACC3                            00000003
ADACC4                            00000004
ADACC5                            00000005
ADACC6                            00000006
ADACC7                            00000007
ADACC8                            00000000
ADACC9                            00000001
ADACCH                            00000F71
ADACCL                            00000F70
ADACLR                            00000003
ADACQ                             00000F5C
ADACQ0                            00000000
ADACQ1                            00000001
ADACQ2                            00000002
ADACQ3                            00000003
ADACQ4                            00000004
ADACQ5                            00000005
ADACQ6                            00000006
MPASM 5.77  /HOME/SCOTT/MPLABXPROJECTS/BATTL   8-10-2018  22:42:13         PAGE 48


SYMBOL TABLE
  LABEL                             VALUE 

ADACQ7                            00000007
ADACT                             00000F56
ADACT0                            00000000
ADACT1                            00000001
ADACT2                            00000002
ADACT3                            00000003
ADACT4                            00000004
ADACTPPS                          00000EAE
ADAOV                             00000007
ADCALC0                           00000004
ADCALC1                           00000005
ADCALC2                           00000006
ADCAP                             00000F5D
ADCAP0                            00000000
ADCAP1                            00000001
ADCAP2                            00000002
ADCAP3                            00000003
ADCAP4                            00000004
ADCLK                             00000F57
ADCMD                             00000005
ADCNT                             00000F67
ADCNT0                            00000000
ADCNT1                            00000001
ADCNT2                            00000002
ADCNT3                            00000003
ADCNT4                            00000004
ADCNT5                            00000005
ADCNT6                            00000006
ADCNT7                            00000007
ADCON0                            00000F60
ADCON1                            00000F59
ADCON2                            00000F5A
ADCON3                            00000F5B
ADCONT                            00000006
ADCRS0                            00000004
ADCRS1                            00000005
ADCRS2                            00000006
ADCS                              00000004
ADCS0                             00000000
ADCS1                             00000001
ADCS2                             00000002
ADCS3                             00000003
ADCS4                             00000004
ADCS5                             00000005
ADDEN                             00000003
ADDSEN                            00000000
ADERR                             00000F6E
ADERR0                            00000000
ADERR1                            00000001
ADERR10                           00000002
ADERR11                           00000003
ADERR12                           00000004
ADERR13                           00000005
MPASM 5.77  /HOME/SCOTT/MPLABXPROJECTS/BATTL   8-10-2018  22:42:13         PAGE 49


SYMBOL TABLE
  LABEL                             VALUE 

ADERR14                           00000006
ADERR15                           00000007
ADERR2                            00000002
ADERR3                            00000003
ADERR4                            00000004
ADERR5                            00000005
ADERR6                            00000006
ADERR7                            00000007
ADERR8                            00000000
ADERR9                            00000001
ADERRH                            00000F6F
ADERRL                            00000F6E
ADFLTR                            00000F72
ADFLTR0                           00000000
ADFLTR1                           00000001
ADFLTR10                          00000002
ADFLTR11                          00000003
ADFLTR12                          00000004
ADFLTR13                          00000005
ADFLTR14                          00000006
ADFLTR15                          00000007
ADFLTR2                           00000002
ADFLTR3                           00000003
ADFLTR4                           00000004
ADFLTR5                           00000005
ADFLTR6                           00000006
ADFLTR7                           00000007
ADFLTR8                           00000000
ADFLTR9                           00000001
ADFLTRH                           00000F73
ADFLTRL                           00000F72
ADFM                              00000002
ADFM0                             00000002
ADFVR0                            00000000
ADFVR1                            00000001
ADGO                              00000000
ADGPOL                            00000005
ADIE                              00000000
ADIF                              00000000
ADIP                              00000000
ADIPEN                            00000006
ADLTH                             00000F6A
ADLTH0                            00000000
ADLTH1                            00000001
ADLTH10                           00000002
ADLTH11                           00000003
ADLTH12                           00000004
ADLTH13                           00000005
ADLTH14                           00000006
ADLTH15                           00000007
ADLTH2                            00000002
ADLTH3                            00000003
ADLTH4                            00000004
MPASM 5.77  /HOME/SCOTT/MPLABXPROJECTS/BATTL   8-10-2018  22:42:13         PAGE 50


SYMBOL TABLE
  LABEL                             VALUE 

ADLTH5                            00000005
ADLTH6                            00000006
ADLTH7                            00000007
ADLTH8                            00000000
ADLTH9                            00000001
ADLTHH                            00000F6B
ADLTHL                            00000F6A
ADLTHR                            00000005
ADMATH                            00000004
ADMD0                             00000000
ADMD1                             00000001
ADMD2                             00000002
ADMSK1                            00000001
ADMSK2                            00000002
ADMSK3                            00000003
ADMSK4                            00000004
ADMSK5                            00000005
ADNREF                            00000004
ADOEN                             00000002
ADON                              00000007
ADOR                              00000002
ADPCH                             00000F5F
ADPCH0                            00000000
ADPCH1                            00000001
ADPCH2                            00000002
ADPCH3                            00000003
ADPCH4                            00000004
ADPCH5                            00000005
ADPPOL                            00000007
ADPRE                             00000F5E
ADPRE0                            00000000
ADPRE1                            00000001
ADPRE2                            00000002
ADPRE3                            00000003
ADPRE4                            00000004
ADPRE5                            00000005
ADPRE6                            00000006
ADPRE7                            00000007
ADPREF0                           00000000
ADPREF1                           00000001
ADPREV                            00000F61
ADPREV0                           00000000
ADPREV1                           00000001
ADPREV10                          00000002
ADPREV11                          00000003
ADPREV12                          00000004
ADPREV13                          00000005
ADPREV14                          00000006
ADPREV15                          00000007
ADPREV2                           00000002
ADPREV3                           00000003
ADPREV4                           00000004
ADPREV5                           00000005
MPASM 5.77  /HOME/SCOTT/MPLABXPROJECTS/BATTL   8-10-2018  22:42:13         PAGE 51


SYMBOL TABLE
  LABEL                             VALUE 

ADPREV6                           00000006
ADPREV7                           00000007
ADPREV8                           00000000
ADPREV9                           00000001
ADPREVH                           00000F62
ADPREVL                           00000F61
ADPSIS                            00000007
ADR0                              00000000
ADR1                              00000001
ADR2                              00000002
ADR3                              00000003
ADR4                              00000004
ADR5                              00000005
ADR6                              00000006
ADR7                              00000007
ADREF                             00000F58
ADRES                             00000F63
ADRES0                            00000000
ADRES1                            00000001
ADRES10                           00000002
ADRES11                           00000003
ADRES12                           00000004
ADRES13                           00000005
ADRES14                           00000006
ADRES15                           00000007
ADRES2                            00000002
ADRES3                            00000003
ADRES4                            00000004
ADRES5                            00000005
ADRES6                            00000006
ADRES7                            00000007
ADRES8                            00000000
ADRES9                            00000001
ADRESH                            00000F64
ADRESL                            00000F63
ADRPT                             00000F66
ADRPT0                            00000000
ADRPT1                            00000001
ADRPT2                            00000002
ADRPT3                            00000003
ADRPT4                            00000004
ADRPT5                            00000005
ADRPT6                            00000006
ADRPT7                            00000007
ADSOI                             00000003
ADSTAT                            00000F65
ADSTAT0                           00000000
ADSTAT1                           00000001
ADSTAT2                           00000002
ADSTPT                            00000F68
ADSTPT0                           00000000
ADSTPT1                           00000001
ADSTPT10                          00000002
MPASM 5.77  /HOME/SCOTT/MPLABXPROJECTS/BATTL   8-10-2018  22:42:13         PAGE 52


SYMBOL TABLE
  LABEL                             VALUE 

ADSTPT11                          00000003
ADSTPT12                          00000004
ADSTPT13                          00000005
ADSTPT14                          00000006
ADSTPT15                          00000007
ADSTPT2                           00000002
ADSTPT3                           00000003
ADSTPT4                           00000004
ADSTPT5                           00000005
ADSTPT6                           00000006
ADSTPT7                           00000007
ADSTPT8                           00000000
ADSTPT9                           00000001
ADSTPTH                           00000F69
ADSTPTL                           00000F68
ADTIE                             00000001
ADTIF                             00000001
ADTIP                             00000001
ADTMD0                            00000000
ADTMD1                            00000001
ADTMD2                            00000002
ADUTH                             00000F6C
ADUTH0                            00000000
ADUTH1                            00000001
ADUTH10                           00000002
ADUTH11                           00000003
ADUTH12                           00000004
ADUTH13                           00000005
ADUTH14                           00000006
ADUTH15                           00000007
ADUTH2                            00000002
ADUTH3                            00000003
ADUTH4                            00000004
ADUTH5                            00000005
ADUTH6                            00000006
ADUTH7                            00000007
ADUTH8                            00000000
ADUTH9                            00000001
ADUTHH                            00000F6D
ADUTHL                            00000F6C
ADUTHR                            00000006
AHEN                              00000001
ANSELA                            00000F11
ANSELA0                           00000000
ANSELA1                           00000001
ANSELA2                           00000002
ANSELA3                           00000003
ANSELA4                           00000004
ANSELA5                           00000005
ANSELA6                           00000006
ANSELA7                           00000007
ANSELB                            00000F19
ANSELB0                           00000000
MPASM 5.77  /HOME/SCOTT/MPLABXPROJECTS/BATTL   8-10-2018  22:42:13         PAGE 53


SYMBOL TABLE
  LABEL                             VALUE 

ANSELB1                           00000001
ANSELB2                           00000002
ANSELB3                           00000003
ANSELB4                           00000004
ANSELB5                           00000005
ANSELB6                           00000006
ANSELB7                           00000007
ANSELC                            00000F21
ANSELC0                           00000000
ANSELC1                           00000001
ANSELC2                           00000002
ANSELC3                           00000003
ANSELC4                           00000004
ANSELC5                           00000005
ANSELC6                           00000006
ANSELC7                           00000007
AS0E                              00000000
AS1E                              00000001
AS2E                              00000002
AS3E                              00000003
AS4E                              00000004
AS5E                              00000005
BANKED                            00000001
BAUD1CON                          00000F9F
BAUDCON                           00000F9F
BAUDCON1                          00000F9F
BAUDCTL                           00000F9F
BAUDCTL1                          00000F9F
BCL1IE                            00000001
BCL1IF                            00000001
BCL1IP                            00000001
BCLIE                             00000001
BCLIF                             00000001
BCLIP                             00000001
BF                                00000000
BIT                               00000000
BOEN                              00000004
BOR                               00000000
BORCON                            00000EE0
BORRDY                            00000000
BRG16                             00000003
BRGH                              00000002
BSR                               00000FE0
BUSY                              00000005
C                                 00000000
C1EN                              00000007
C1HYS                             00000001
C1IE                              00000000
C1IF                              00000000
C1INTN                            00000000
C1INTP                            00000001
C1IP                              00000000
C1NCH0                            00000000
MPASM 5.77  /HOME/SCOTT/MPLABXPROJECTS/BATTL   8-10-2018  22:42:13         PAGE 54


SYMBOL TABLE
  LABEL                             VALUE 

C1NCH1                            00000001
C1NCH2                            00000002
C1OUT                             00000006
C1PCH0                            00000000
C1PCH1                            00000001
C1PCH2                            00000002
C1POL                             00000004
C1SYNC                            00000000
C1TSEL0                           00000000
C1TSEL1                           00000001
C2EN                              00000007
C2HYS                             00000001
C2IE                              00000001
C2IF                              00000001
C2INTN                            00000000
C2INTP                            00000001
C2IP                              00000001
C2NCH0                            00000000
C2NCH1                            00000001
C2NCH2                            00000002
C2OUT                             00000006
C2PCH0                            00000000
C2PCH1                            00000001
C2PCH2                            00000002
C2POL                             00000004
C2SYNC                            00000000
C2TSEL0                           00000002
C2TSEL1                           00000003
CCP1CAP                           00000FAD
CCP1CON                           00000FAC
CCP1CTS0                          00000000
CCP1CTS1                          00000001
CCP1EN                            00000007
CCP1FMT                           00000004
CCP1IE                            00000000
CCP1IF                            00000000
CCP1IP                            00000000
CCP1MD                            00000000
CCP1MODE0                         00000000
CCP1MODE1                         00000001
CCP1MODE2                         00000002
CCP1MODE3                         00000003
CCP1OUT                           00000005
CCP1PPS                           00000EAF
CCP2CAP                           00000FA9
CCP2CON                           00000FA8
CCP2CTS0                          00000000
CCP2CTS1                          00000001
CCP2EN                            00000007
CCP2FMT                           00000004
CCP2IE                            00000001
CCP2IF                            00000001
CCP2IP                            00000001
MPASM 5.77  /HOME/SCOTT/MPLABXPROJECTS/BATTL   8-10-2018  22:42:13         PAGE 55


SYMBOL TABLE
  LABEL                             VALUE 

CCP2MD                            00000001
CCP2MODE0                         00000000
CCP2MODE1                         00000001
CCP2MODE2                         00000002
CCP2MODE3                         00000003
CCP2OUT                           00000005
CCP2PPS                           00000EB0
CCPR1                             00000FAA
CCPR1H                            00000FAB
CCPR1L                            00000FAA
CCPR2                             00000FA6
CCPR2H                            00000FA7
CCPR2L                            00000FA6
CCPTMRS                           00000FAE
CDAFVR0                           00000002
CDAFVR1                           00000003
CDIV0                             00000000
CDIV1                             00000001
CDIV2                             00000002
CDIV3                             00000003
CHPOL                             00000005
CHS0                              00000000
CHS1                              00000001
CHS2                              00000002
CHSYNC                            00000004
CK1PPS                            00000EB6
CKE                               00000006
CKP                               00000004
CKPOL                             00000006
CKPPS                             00000EB6
CKPS0                             00000004
CKPS1                             00000005
CKPS2                             00000006
CKSYNC                            00000005
CLK0                              00000000
CLK1                              00000001
CLK2                              00000002
CLKRCLK                           00000F3F
CLKRCLK0                          00000000
CLKRCLK1                          00000001
CLKRCLK2                          00000002
CLKRCON                           00000F3E
CLKRDC0                           00000003
CLKRDC1                           00000004
CLKRDIV0                          00000000
CLKRDIV1                          00000001
CLKRDIV2                          00000002
CLKREN                            00000007
CLKRMD                            00000001
CLPOL                             00000001
CLS0                              00000000
CLS1                              00000001
CLS2                              00000002
MPASM 5.77  /HOME/SCOTT/MPLABXPROJECTS/BATTL   8-10-2018  22:42:13         PAGE 56


SYMBOL TABLE
  LABEL                             VALUE 

CLSYNC                            00000000
CM1CON0                           00000F39
CM1CON1                           00000F3A
CM1NCH                            00000F3B
CM1PCH                            00000F3C
CM2CON0                           00000F35
CM2CON1                           00000F36
CM2NCH                            00000F37
CM2PCH                            00000F38
CMOUT                             00000F3D
CMP1MD                            00000001
CMP2MD                            00000002
COSC0                             00000004
COSC1                             00000005
COSC2                             00000006
CPUDOZE                           00000ED7
CRCACC                            00000F76
CRCACCH                           00000F77
CRCACCL                           00000F76
CRCCON0                           00000F7C
CRCCON1                           00000F7D
CRCDATA                           00000F74
CRCDATH                           00000F75
CRCDATL                           00000F74
CRCEN                             00000007
CRCGO                             00000006
CRCIE                             00000006
CRCIF                             00000006
CRCIP                             00000006
CRCMD                             00000004
CRCSHFT                           00000F78
CRCSHIFTH                         00000F79
CRCSHIFTL                         00000F78
CRCXOR                            00000F7A
CRCXORH                           00000F7B
CRCXORL                           00000F7A
CREN                              00000004
CS                                00000000
CS0                               00000000
CS1                               00000001
CS2                               00000002
CS3                               00000003
CSRC                              00000007
CSWHOLD                           00000007
CSWIE                             00000006
CSWIF                             00000006
CSWIP                             00000006
CTS0                              00000000
CTS1                              00000001
CWG1AS0                           00000F46
CWG1AS1                           00000F47
CWG1CLK                           00000F40
CWG1CLKCON                        00000F40
MPASM 5.77  /HOME/SCOTT/MPLABXPROJECTS/BATTL   8-10-2018  22:42:13         PAGE 57


SYMBOL TABLE
  LABEL                             VALUE 

CWG1CON0                          00000F44
CWG1CON1                          00000F45
CWG1CS                            00000000
CWG1DBF                           00000F43
CWG1DBF0                          00000000
CWG1DBF1                          00000001
CWG1DBF2                          00000002
CWG1DBF3                          00000003
CWG1DBF4                          00000004
CWG1DBF5                          00000005
CWG1DBR                           00000F42
CWG1DBR0                          00000000
CWG1DBR1                          00000001
CWG1DBR2                          00000002
CWG1DBR3                          00000003
CWG1DBR4                          00000004
CWG1DBR5                          00000005
CWG1EN                            00000007
CWG1IE                            00000000
CWG1IF                            00000000
CWG1IN                            00000005
CWG1IP                            00000000
CWG1ISM                           00000F41
CWG1ISM0                          00000000
CWG1ISM1                          00000001
CWG1ISM2                          00000002
CWG1ISM3                          00000003
CWG1LD                            00000006
CWG1LSAC0                         00000002
CWG1LSAC1                         00000003
CWG1LSBD0                         00000004
CWG1LSBD1                         00000005
CWG1MD                            00000000
CWG1MODE0                         00000000
CWG1MODE1                         00000001
CWG1MODE2                         00000002
CWG1OVRA                          00000004
CWG1OVRB                          00000005
CWG1OVRC                          00000006
CWG1OVRD                          00000007
CWG1POLA                          00000000
CWG1POLB                          00000001
CWG1POLC                          00000002
CWG1POLD                          00000003
CWG1PPS                           00000EB1
CWG1REN                           00000006
CWG1SHUTDOWN                      00000007
CWG1STR                           00000F48
CWG1STRA                          00000000
CWG1STRB                          00000001
CWG1STRC                          00000002
CWG1STRD                          00000003
CWGIE                             00000000
MPASM 5.77  /HOME/SCOTT/MPLABXPROJECTS/BATTL   8-10-2018  22:42:13         PAGE 58


SYMBOL TABLE
  LABEL                             VALUE 

CWGIF                             00000000
CWGINPPS                          00000EB1
CWGIP                             00000000
CWGMD                             00000000
DABORT                            00000004
DAC1CON0                          00000F33
DAC1CON1                          00000F34
DAC1EN                            00000007
DAC1NSS                           00000000
DAC1OE1                           00000005
DAC1OE2                           00000004
DAC1PSS0                          00000002
DAC1PSS1                          00000003
DAC1R0                            00000000
DAC1R1                            00000001
DAC1R2                            00000002
DAC1R3                            00000003
DAC1R4                            00000004
DACMD                             00000006
DATA0                             00000000
DATA1                             00000001
DATA10                            00000002
DATA11                            00000003
DATA12                            00000004
DATA13                            00000005
DATA14                            00000006
DATA15                            00000007
DATA2                             00000002
DATA3                             00000003
DATA4                             00000004
DATA5                             00000005
DATA6                             00000006
DATA7                             00000007
DATA8                             00000000
DATA9                             00000001
DATA_ADDRESS                      00000005
DBF0                              00000000
DBF1                              00000001
DBF2                              00000002
DBF3                              00000003
DBF4                              00000004
DBF5                              00000005
DBR0                              00000000
DBR1                              00000001
DBR2                              00000002
DBR3                              00000003
DBR4                              00000004
DBR5                              00000005
DC                                00000001
DC0_CLKRCON                       00000003
DC0_PWM3DCL                       00000006
DC0_PWM4DCL                       00000006
DC1_CLKRCON                       00000004
MPASM 5.77  /HOME/SCOTT/MPLABXPROJECTS/BATTL   8-10-2018  22:42:13         PAGE 59


SYMBOL TABLE
  LABEL                             VALUE 

DC1_PWM3DCL                       00000007
DC1_PWM4DCL                       00000007
DC2                               00000000
DC3                               00000001
DC4                               00000002
DC5                               00000003
DC6                               00000004
DC7                               00000005
DC8                               00000006
DC9                               00000007
DDRA                              TRISA
DDRB                              TRISB
DDRC                              TRISC
DDRD                              TRISD
DDRE                              TRISE
DHEN                              00000000
DISPFRMTHRESH                     000000EF
DIV0                              00000000
DIV1                              00000001
DIV2                              00000002
DLEN0                             00000004
DLEN1                             00000005
DLEN2                             00000006
DLEN3                             00000007
DOE                               00000004
DONE                              00000000
DOZE0                             00000000
DOZE1                             00000001
DOZE2                             00000002
DOZEN                             00000006
DSMMD                             00000000
D_A                               00000005
D_NOT_A                           00000005
EN                                00000007
EXTOEN                            00000007
EXTOR                             00000007
FAST                              00000001
FERR                              00000002
FMT                               00000004
FREE                              00000004
FRQ0                              00000000
FRQ1                              00000001
FRQ2                              00000002
FRQ3                              00000003
FSR0                              00000000
FSR0H                             00000FEA
FSR0L                             00000FE9
FSR1                              00000001
FSR1H                             00000FE2
FSR1L                             00000FE1
FSR2                              00000002
FSR2H                             00000FDA
FSR2L                             00000FD9
MPASM 5.77  /HOME/SCOTT/MPLABXPROJECTS/BATTL   8-10-2018  22:42:13         PAGE 60


SYMBOL TABLE
  LABEL                             VALUE 

FULL                              00000000
FVRCON                            00000F31
FVREN                             00000007
FVRMD                             00000006
FVRRDY                            00000006
G1EN                              00000007
GCEN                              00000007
GE                                00000007
GGO_NOT_DONE                      00000003
GIE                               00000007
GIEH                              00000007
GIEL                              00000006
GIE_GIEH                          00000007
GO_ADCON0                         00000000
GO_NOT_DONE                       00000000
GO_SCANCON0                       00000006
GPOL                              00000006
GSPM                              00000004
GSS0                              00000000
GSS1                              00000001
GSS2                              00000002
GSS3                              00000003
GTM                               00000005
GVAL                              00000002
HADR0                             00000000
HADR1                             00000001
HADR10                            00000002
HADR11                            00000003
HADR12                            00000004
HADR13                            00000005
HADR14                            00000006
HADR15                            00000007
HADR16                            00000000
HADR17                            00000001
HADR18                            00000002
HADR19                            00000003
HADR2                             00000002
HADR20                            00000004
HADR21                            00000005
HADR3                             00000003
HADR4                             00000004
HADR5                             00000005
HADR6                             00000006
HADR7                             00000007
HADR8                             00000000
HADR9                             00000001
HFOEN                             00000006
HFOR                              00000006
HIGH_ISR                          0000000E
HLVDCON0                          00000F2F
HLVDCON1                          00000F30
HLVDEN                            00000007
HLVDIE                            00000007
MPASM 5.77  /HOME/SCOTT/MPLABXPROJECTS/BATTL   8-10-2018  22:42:13         PAGE 61


SYMBOL TABLE
  LABEL                             VALUE 

HLVDIF                            00000007
HLVDINTH                          00000001
HLVDINTL                          00000000
HLVDIP                            00000007
HLVDMD                            00000005
HLVDOUT                           00000005
HLVDRDY                           00000004
HLVDSEL0                          00000000
HLVDSEL1                          00000001
HLVDSEL2                          00000002
HLVDSEL3                          00000003
HYS                               00000001
I2C_DAT                           00000005
I2C_READ                          00000002
I2C_START                         00000003
I2C_STOP                          00000004
IDLEN                             00000007
IN                                00000005
INDF0                             00000FEF
INDF1                             00000FE7
INDF2                             00000FDF
INLVLA                            00000F0D
INLVLA0                           00000000
INLVLA1                           00000001
INLVLA2                           00000002
INLVLA3                           00000003
INLVLA4                           00000004
INLVLA5                           00000005
INLVLA6                           00000006
INLVLA7                           00000007
INLVLB                            00000F15
INLVLB0                           00000000
INLVLB1                           00000001
INLVLB2                           00000002
INLVLB3                           00000003
INLVLB4                           00000004
INLVLB5                           00000005
INLVLB6                           00000006
INLVLB7                           00000007
INLVLC                            00000F1D
INLVLC0                           00000000
INLVLC1                           00000001
INLVLC2                           00000002
INLVLC3                           00000003
INLVLC4                           00000004
INLVLC5                           00000005
INLVLC6                           00000006
INLVLC7                           00000007
INLVLE                            00000F2A
INLVLE3                           00000003
INT0EDG                           00000000
INT0IE                            00000000
INT0IF                            00000000
MPASM 5.77  /HOME/SCOTT/MPLABXPROJECTS/BATTL   8-10-2018  22:42:13         PAGE 62


SYMBOL TABLE
  LABEL                             VALUE 

INT0IP                            00000000
INT0PPS                           00000EA1
INT1EDG                           00000001
INT1IE                            00000001
INT1IF                            00000001
INT1IP                            00000001
INT1PPS                           00000EA2
INT2EDG                           00000002
INT2IE                            00000002
INT2IF                            00000002
INT2IP                            00000002
INT2PPS                           00000EA3
INTCON                            00000FF2
INTH                              00000001
INTL                              00000000
INTM                              00000003
INTN                              00000000
INTP                              00000001
INVALID                           00000004
IOCAF                             00000F0A
IOCAF0                            00000000
IOCAF1                            00000001
IOCAF2                            00000002
IOCAF3                            00000003
IOCAF4                            00000004
IOCAF5                            00000005
IOCAF6                            00000006
IOCAF7                            00000007
IOCAN                             00000F0B
IOCAN0                            00000000
IOCAN1                            00000001
IOCAN2                            00000002
IOCAN3                            00000003
IOCAN4                            00000004
IOCAN5                            00000005
IOCAN6                            00000006
IOCAN7                            00000007
IOCAP                             00000F0C
IOCAP0                            00000000
IOCAP1                            00000001
IOCAP2                            00000002
IOCAP3                            00000003
IOCAP4                            00000004
IOCAP5                            00000005
IOCAP6                            00000006
IOCAP7                            00000007
IOCBF                             00000F12
IOCBF0                            00000000
IOCBF1                            00000001
IOCBF2                            00000002
IOCBF3                            00000003
IOCBF4                            00000004
IOCBF5                            00000005
MPASM 5.77  /HOME/SCOTT/MPLABXPROJECTS/BATTL   8-10-2018  22:42:13         PAGE 63


SYMBOL TABLE
  LABEL                             VALUE 

IOCBF6                            00000006
IOCBF7                            00000007
IOCBN                             00000F13
IOCBN0                            00000000
IOCBN1                            00000001
IOCBN2                            00000002
IOCBN3                            00000003
IOCBN4                            00000004
IOCBN5                            00000005
IOCBN6                            00000006
IOCBN7                            00000007
IOCBP                             00000F14
IOCBP0                            00000000
IOCBP1                            00000001
IOCBP2                            00000002
IOCBP3                            00000003
IOCBP4                            00000004
IOCBP5                            00000005
IOCBP6                            00000006
IOCBP7                            00000007
IOCCF                             00000F1A
IOCCF0                            00000000
IOCCF1                            00000001
IOCCF2                            00000002
IOCCF3                            00000003
IOCCF4                            00000004
IOCCF5                            00000005
IOCCF6                            00000006
IOCCF7                            00000007
IOCCN                             00000F1B
IOCCN0                            00000000
IOCCN1                            00000001
IOCCN2                            00000002
IOCCN3                            00000003
IOCCN4                            00000004
IOCCN5                            00000005
IOCCN6                            00000006
IOCCN7                            00000007
IOCCP                             00000F1C
IOCCP0                            00000000
IOCCP1                            00000001
IOCCP2                            00000002
IOCCP3                            00000003
IOCCP4                            00000004
IOCCP5                            00000005
IOCCP6                            00000006
IOCCP7                            00000007
IOCEF                             00000F27
IOCEF3                            00000003
IOCEN                             00000F28
IOCEN3                            00000003
IOCEP                             00000F29
IOCEP3                            00000003
MPASM 5.77  /HOME/SCOTT/MPLABXPROJECTS/BATTL   8-10-2018  22:42:13         PAGE 64


SYMBOL TABLE
  LABEL                             VALUE 

IOCIE                             00000004
IOCIF                             00000004
IOCIP                             00000004
IOCMD                             00000000
IPEN                              00000005
IPR0                              00000EBA
IPR1                              00000EBB
IPR2                              00000EBC
IPR3                              00000EBD
IPR4                              00000EBE
IPR5                              00000EBF
IPR6                              00000EC0
IPR7                              00000EC1
ISR                               00000330
LADR0                             00000000
LADR1                             00000001
LADR10                            00000002
LADR11                            00000003
LADR12                            00000004
LADR13                            00000005
LADR14                            00000006
LADR15                            00000007
LADR16                            00000000
LADR17                            00000001
LADR18                            00000002
LADR19                            00000003
LADR2                             00000002
LADR20                            00000004
LADR21                            00000005
LADR3                             00000003
LADR4                             00000004
LADR5                             00000005
LADR6                             00000006
LADR7                             00000007
LADR8                             00000000
LADR9                             00000001
LATA                              00000F83
LATA0                             00000000
LATA1                             00000001
LATA2                             00000002
LATA3                             00000003
LATA4                             00000004
LATA5                             00000005
LATA6                             00000006
LATA7                             00000007
LATB                              00000F84
LATB0                             00000000
LATB1                             00000001
LATB2                             00000002
LATB3                             00000003
LATB4                             00000004
LATB5                             00000005
LATB6                             00000006
MPASM 5.77  /HOME/SCOTT/MPLABXPROJECTS/BATTL   8-10-2018  22:42:13         PAGE 65


SYMBOL TABLE
  LABEL                             VALUE 

LATB7                             00000007
LATC                              00000F85
LATC0                             00000000
LATC1                             00000001
LATC2                             00000002
LATC3                             00000003
LATC4                             00000004
LATC5                             00000005
LATC6                             00000006
LATC7                             00000007
LD                                00000006
LFOEN                             00000004
LFOR                              00000004
LFTRT                             00000001
LSAC0                             00000002
LSAC1                             00000003
LSBD0                             00000004
LSBD1                             00000005
MC1OUT                            00000000
MC2OUT                            00000001
MDBIT                             00000000
MDCARH                            00000F55
MDCARHPPS                         00000EB3
MDCARL                            00000F54
MDCARLPPS                         00000EB2
MDCHPOL                           00000005
MDCHS0                            00000000
MDCHS1                            00000001
MDCHS2                            00000002
MDCHSYNC                          00000004
MDCLPOL                           00000001
MDCLS0                            00000000
MDCLS1                            00000001
MDCLS2                            00000002
MDCLSYNC                          00000000
MDCON0                            00000F51
MDCON1                            00000F52
MDEN                              00000007
MDOPOL                            00000004
MDOUT                             00000005
MDSRC                             00000F53
MDSRCPPS                          00000EB4
MDSRCS0                           00000000
MDSRCS1                           00000001
MDSRCS2                           00000002
MDSRCS3                           00000003
MFOEN                             00000005
MFOR                              00000005
MODE0                             00000000
MODE1                             00000001
MODE2                             00000002
MODE3                             00000003
MODE4                             00000004
MPASM 5.77  /HOME/SCOTT/MPLABXPROJECTS/BATTL   8-10-2018  22:42:13         PAGE 66


SYMBOL TABLE
  LABEL                             VALUE 

MSK0                              00000000
MSK1                              00000001
MSK2                              00000002
MSK3                              00000003
MSK4                              00000004
MSK5                              00000005
MSK6                              00000006
MSK7                              00000007
MSSP1MD                           00000004
N                                 00000004
NCH0                              00000000
NCH1                              00000001
NCH2                              00000002
NDIV0                             00000000
NDIV1                             00000001
NDIV2                             00000002
NDIV3                             00000003
NOSC0                             00000004
NOSC1                             00000005
NOSC2                             00000006
NOSCR                             00000003
NOT_A                             00000005
NOT_ADDRESS                       00000005
NOT_BOR                           00000000
NOT_PD                            00000005
NOT_POR                           00000001
NOT_RI                            00000002
NOT_RMCLR                         00000003
NOT_RWDT                          00000004
NOT_SYNC                          00000002
NOT_T1SYNC                        00000002
NOT_T3SYNC                        00000002
NOT_T5SYNC                        00000002
NOT_TO                            00000006
NOT_W                             00000002
NOT_WDTWV                         00000005
NOT_WRITE                         00000002
NSS                               00000000
NUMCHARS                          00000009
NVMADR                            00000F7E
NVMADR0                           00000000
NVMADR1                           00000001
NVMADR2                           00000002
NVMADR3                           00000003
NVMADR4                           00000004
NVMADR5                           00000005
NVMADR6                           00000006
NVMADR7                           00000007
NVMADRL                           00000F7E
NVMCON1                           00000F81
NVMCON2                           00000F82
NVMDAT                            00000F80
NVMDAT0                           00000000
MPASM 5.77  /HOME/SCOTT/MPLABXPROJECTS/BATTL   8-10-2018  22:42:13         PAGE 67


SYMBOL TABLE
  LABEL                             VALUE 

NVMDAT1                           00000001
NVMDAT2                           00000002
NVMDAT3                           00000003
NVMDAT4                           00000004
NVMDAT5                           00000005
NVMDAT6                           00000006
NVMDAT7                           00000007
NVMIE                             00000005
NVMIF                             00000005
NVMIP                             00000005
NVMMD                             00000002
NVMREG0                           00000006
NVMREG1                           00000007
ODCA0                             00000000
ODCA1                             00000001
ODCA2                             00000002
ODCA3                             00000003
ODCA4                             00000004
ODCA5                             00000005
ODCA6                             00000006
ODCA7                             00000007
ODCB0                             00000000
ODCB1                             00000001
ODCB2                             00000002
ODCB3                             00000003
ODCB4                             00000004
ODCB5                             00000005
ODCB6                             00000006
ODCB7                             00000007
ODCC0                             00000000
ODCC1                             00000001
ODCC2                             00000002
ODCC3                             00000003
ODCC4                             00000004
ODCC5                             00000005
ODCC6                             00000006
ODCC7                             00000007
ODCONA                            00000F0F
ODCONB                            00000F17
ODCONC                            00000F1F
OE1                               00000005
OE2                               00000004
OERR                              00000001
ON_T1CON                          00000000
ON_T2CON                          00000007
ON_T3CON                          00000000
ON_T4CON                          00000007
ON_T5CON                          00000000
ON_T6CON                          00000007
OPOL                              00000004
ORDY                              00000004
OSCCON1                           00000ED8
OSCCON2                           00000ED9
MPASM 5.77  /HOME/SCOTT/MPLABXPROJECTS/BATTL   8-10-2018  22:42:13         PAGE 68


SYMBOL TABLE
  LABEL                             VALUE 

OSCCON3                           00000EDA
OSCEN                             00000EDC
OSCFIE                            00000007
OSCFIF                            00000007
OSCFIP                            00000007
OSCFRQ                            00000EDE
OSCSTAT                           00000EDB
OSCSTAT1                          00000EDB
OSCTUNE                           00000EDD
OUTPS0                            00000000
OUTPS1                            00000001
OUTPS2                            00000002
OUTPS3                            00000003
OUT_CCP1CON                       00000005
OUT_CCP2CON                       00000005
OUT_CM1CON0                       00000006
OUT_CM2CON0                       00000006
OUT_HLVDCON0                      00000005
OUT_MDCON0                        00000005
OUT_PWM3CON                       00000005
OUT_PWM4CON                       00000005
OUT_ZCDCON                        00000005
OV                                00000003
OVRA                              00000004
OVRB                              00000005
OVRC                              00000006
OVRD                              00000007
P                                 00000004
P3TSEL0                           00000004
P3TSEL1                           00000005
P4TSEL0                           00000006
P4TSEL1                           00000007
PC                                00000FF9
PCH0                              00000000
PCH1                              00000001
PCH2                              00000002
PCIE                              00000006
PCL                               00000FF9
PCLATH                            00000FFA
PCLATU                            00000FFB
PCON0                             00000FD7
PD                                00000005
PEIE                              00000006
PEIE_GIEL                         00000006
PEN                               00000002
PIE0                              00000EC2
PIE1                              00000EC3
PIE2                              00000EC4
PIE3                              00000EC5
PIE4                              00000EC6
PIE5                              00000EC7
PIE6                              00000EC8
PIE7                              00000EC9
MPASM 5.77  /HOME/SCOTT/MPLABXPROJECTS/BATTL   8-10-2018  22:42:13         PAGE 69


SYMBOL TABLE
  LABEL                             VALUE 

PIR0                              00000ECA
PIR1                              00000ECB
PIR2                              00000ECC
PIR3                              00000ECD
PIR4                              00000ECE
PIR5                              00000ECF
PIR6                              00000ED0
PIR7                              00000ED1
PLEN0                             00000000
PLEN1                             00000001
PLEN2                             00000002
PLEN3                             00000003
PLLR                              00000000
PLUSW0                            00000FEB
PLUSW1                            00000FE3
PLUSW2                            00000FDB
PMD0                              00000EE1
PMD1                              00000EE2
PMD2                              00000EE3
PMD3                              00000EE4
PMD4                              00000EE5
PMD5                              00000EE6
POL                               00000004
POLA                              00000000
POLB                              00000001
POLC                              00000002
POLD                              00000003
POR                               00000001
PORT                              00000003
PORTA                             00000F8D
PORTB                             00000F8E
PORTC                             00000F8F
PORTE                             00000F91
POSTDEC0                          00000FED
POSTDEC1                          00000FE5
POSTDEC2                          00000FDD
POSTINC0                          00000FEE
POSTINC1                          00000FE6
POSTINC2                          00000FDE
PPSLOCK                           00000EA0
PPSLOCKED                         00000000
PR0                               00000FD4
PR1                               00000FD0
PR2                               00000FBC
PR3                               00000FCA
PR4                               00000FB6
PR5                               00000FC4
PR6                               00000FB0
PREINC0                           00000FEC
PREINC1                           00000FE4
PREINC2                           00000FDC
PROD                              00000FF3
PRODH                             00000FF4
MPASM 5.77  /HOME/SCOTT/MPLABXPROJECTS/BATTL   8-10-2018  22:42:13         PAGE 70


SYMBOL TABLE
  LABEL                             VALUE 

PRODL                             00000FF3
PSCNT0                            00000000
PSCNT1                            00000001
PSCNT10                           00000002
PSCNT11                           00000003
PSCNT12                           00000004
PSCNT13                           00000005
PSCNT14                           00000006
PSCNT15                           00000007
PSCNT16                           00000000
PSCNT17                           00000001
PSCNT2                            00000002
PSCNT3                            00000003
PSCNT4                            00000004
PSCNT5                            00000005
PSCNT6                            00000006
PSCNT7                            00000007
PSCNT8                            00000000
PSCNT9                            00000001
PSS0                              00000002
PSS1                              00000003
PSYNC                             00000007
PWM3CON                           00000FA5
PWM3DC0                           00000006
PWM3DC1                           00000007
PWM3DC2                           00000000
PWM3DC3                           00000001
PWM3DC4                           00000002
PWM3DC5                           00000003
PWM3DC6                           00000004
PWM3DC7                           00000005
PWM3DC8                           00000006
PWM3DC9                           00000007
PWM3DCH                           00000FA4
PWM3DCL                           00000FA3
PWM3EN                            00000007
PWM3MD                            00000002
PWM3OUT                           00000005
PWM3POL                           00000004
PWM4CON                           00000FA2
PWM4DC0                           00000006
PWM4DC1                           00000007
PWM4DC2                           00000000
PWM4DC3                           00000001
PWM4DC4                           00000002
PWM4DC5                           00000003
PWM4DC6                           00000004
PWM4DC7                           00000005
PWM4DC8                           00000006
PWM4DC9                           00000007
PWM4DCH                           00000FA1
PWM4DCL                           00000FA0
PWM4EN                            00000007
MPASM 5.77  /HOME/SCOTT/MPLABXPROJECTS/BATTL   8-10-2018  22:42:13         PAGE 71


SYMBOL TABLE
  LABEL                             VALUE 

PWM4MD                            00000003
PWM4OUT                           00000005
PWM4POL                           00000004
PWMPW0                            00000006
PWMPW1                            00000007
PWMPW2                            00000000
PWMPW3                            00000001
PWMPW4                            00000002
PWMPW5                            00000003
PWMPW6                            00000004
PWMPW7                            00000005
PWMPW8                            00000006
PWMPW9                            00000007
RA0                               00000000
RA0PPS                            00000EE7
RA0PPS0                           00000000
RA0PPS1                           00000001
RA0PPS2                           00000002
RA0PPS3                           00000003
RA0PPS4                           00000004
RA1                               00000001
RA1PPS                            00000EE8
RA1PPS0                           00000000
RA1PPS1                           00000001
RA1PPS2                           00000002
RA1PPS3                           00000003
RA1PPS4                           00000004
RA2                               00000002
RA2PPS                            00000EE9
RA2PPS0                           00000000
RA2PPS1                           00000001
RA2PPS2                           00000002
RA2PPS3                           00000003
RA2PPS4                           00000004
RA3                               00000003
RA3PPS                            00000EEA
RA3PPS0                           00000000
RA3PPS1                           00000001
RA3PPS2                           00000002
RA3PPS3                           00000003
RA3PPS4                           00000004
RA4                               00000004
RA4PPS                            00000EEB
RA4PPS0                           00000000
RA4PPS1                           00000001
RA4PPS2                           00000002
RA4PPS3                           00000003
RA4PPS4                           00000004
RA5                               00000005
RA5PPS                            00000EEC
RA5PPS0                           00000000
RA5PPS1                           00000001
RA5PPS2                           00000002
MPASM 5.77  /HOME/SCOTT/MPLABXPROJECTS/BATTL   8-10-2018  22:42:13         PAGE 72


SYMBOL TABLE
  LABEL                             VALUE 

RA5PPS3                           00000003
RA5PPS4                           00000004
RA6                               00000006
RA6PPS                            00000EED
RA6PPS0                           00000000
RA6PPS1                           00000001
RA6PPS2                           00000002
RA6PPS3                           00000003
RA6PPS4                           00000004
RA7                               00000007
RA7PPS                            00000EEE
RA7PPS0                           00000000
RA7PPS1                           00000001
RA7PPS2                           00000002
RA7PPS3                           00000003
RA7PPS4                           00000004
RB0                               00000000
RB0PPS                            00000EEF
RB0PPS0                           00000000
RB0PPS1                           00000001
RB0PPS2                           00000002
RB0PPS3                           00000003
RB0PPS4                           00000004
RB1                               00000001
RB1PPS                            00000EF0
RB1PPS0                           00000000
RB1PPS1                           00000001
RB1PPS2                           00000002
RB1PPS3                           00000003
RB1PPS4                           00000004
RB2                               00000002
RB2PPS                            00000EF1
RB2PPS0                           00000000
RB2PPS1                           00000001
RB2PPS2                           00000002
RB2PPS3                           00000003
RB2PPS4                           00000004
RB3                               00000003
RB3PPS                            00000EF2
RB3PPS0                           00000000
RB3PPS1                           00000001
RB3PPS2                           00000002
RB3PPS3                           00000003
RB3PPS4                           00000004
RB4                               00000004
RB4PPS                            00000EF3
RB4PPS0                           00000000
RB4PPS1                           00000001
RB4PPS2                           00000002
RB4PPS3                           00000003
RB4PPS4                           00000004
RB5                               00000005
RB5PPS                            00000EF4
MPASM 5.77  /HOME/SCOTT/MPLABXPROJECTS/BATTL   8-10-2018  22:42:13         PAGE 73


SYMBOL TABLE
  LABEL                             VALUE 

RB5PPS0                           00000000
RB5PPS1                           00000001
RB5PPS2                           00000002
RB5PPS3                           00000003
RB5PPS4                           00000004
RB6                               00000006
RB6PPS                            00000EF5
RB6PPS0                           00000000
RB6PPS1                           00000001
RB6PPS2                           00000002
RB6PPS3                           00000003
RB6PPS4                           00000004
RB7                               00000007
RB7PPS                            00000EF6
RB7PPS0                           00000000
RB7PPS1                           00000001
RB7PPS2                           00000002
RB7PPS3                           00000003
RB7PPS4                           00000004
RC0                               00000000
RC0PPS                            00000EF7
RC0PPS0                           00000000
RC0PPS1                           00000001
RC0PPS2                           00000002
RC0PPS3                           00000003
RC0PPS4                           00000004
RC1                               00000001
RC1IF                             00000005
RC1PPS                            00000EF8
RC1PPS0                           00000000
RC1PPS1                           00000001
RC1PPS2                           00000002
RC1PPS3                           00000003
RC1PPS4                           00000004
RC1REG                            00000F99
RC1STA                            00000F9D
RC2                               00000002
RC2PPS                            00000EF9
RC2PPS0                           00000000
RC2PPS1                           00000001
RC2PPS2                           00000002
RC2PPS3                           00000003
RC2PPS4                           00000004
RC3                               00000003
RC3PPS                            00000EFA
RC3PPS0                           00000000
RC3PPS1                           00000001
RC3PPS2                           00000002
RC3PPS3                           00000003
RC3PPS4                           00000004
RC4                               00000004
RC4PPS                            00000EFB
RC4PPS0                           00000000
MPASM 5.77  /HOME/SCOTT/MPLABXPROJECTS/BATTL   8-10-2018  22:42:13         PAGE 74


SYMBOL TABLE
  LABEL                             VALUE 

RC4PPS1                           00000001
RC4PPS2                           00000002
RC4PPS3                           00000003
RC4PPS4                           00000004
RC5                               00000005
RC5PPS                            00000EFC
RC5PPS0                           00000000
RC5PPS1                           00000001
RC5PPS2                           00000002
RC5PPS3                           00000003
RC5PPS4                           00000004
RC6                               00000006
RC6PPS                            00000EFD
RC6PPS0                           00000000
RC6PPS1                           00000001
RC6PPS2                           00000002
RC6PPS3                           00000003
RC6PPS4                           00000004
RC7                               00000007
RC7PPS                            00000EFE
RC7PPS0                           00000000
RC7PPS1                           00000001
RC7PPS2                           00000002
RC7PPS3                           00000003
RC7PPS4                           00000004
RCEN                              00000003
RCIDL                             00000006
RCIE                              00000005
RCIF                              00000005
RCIP                              00000005
RCREG                             00000F99
RCREG1                            00000F99
RCSTA                             00000F9D
RCSTA1                            00000F9D
RD                                00000000
RD16                              00000001
RDY_FVRCON                        00000006
RDY_HLVDCON0                      00000004
RE3                               00000003
READ_WRITE                        00000002
REN                               00000006
RI                                00000002
RMCLR                             00000003
ROI                               00000005
RSEL0                             00000000
RSEL1                             00000001
RSEL2                             00000002
RSEL3                             00000003
RSEN                              00000001
RWDT                              00000004
RX1PPS                            00000EB5
RX9                               00000006
RX9D                              00000000
MPASM 5.77  /HOME/SCOTT/MPLABXPROJECTS/BATTL   8-10-2018  22:42:13         PAGE 75


SYMBOL TABLE
  LABEL                             VALUE 

RXPPS                             00000EB5
R_NOT_W                           00000002
R_W                               00000002
S                                 00000003
SBCDE                             00000002
SBOREN                            00000007
SCANBUSY                          00000005
SCANCON0                          00000F4F
SCANEN                            00000007
SCANGO                            00000006
SCANHADR                          00000F4C
SCANHADR0                         00000000
SCANHADR1                         00000001
SCANHADR10                        00000002
SCANHADR11                        00000003
SCANHADR12                        00000004
SCANHADR13                        00000005
SCANHADR14                        00000006
SCANHADR15                        00000007
SCANHADR16                        00000000
SCANHADR17                        00000001
SCANHADR18                        00000002
SCANHADR19                        00000003
SCANHADR2                         00000002
SCANHADR20                        00000004
SCANHADR21                        00000005
SCANHADR3                         00000003
SCANHADR4                         00000004
SCANHADR5                         00000005
SCANHADR6                         00000006
SCANHADR7                         00000007
SCANHADR8                         00000000
SCANHADR9                         00000001
SCANHADRH                         00000F4D
SCANHADRL                         00000F4C
SCANHADRU                         00000F4E
SCANIE                            00000007
SCANIF                            00000007
SCANINTM                          00000003
SCANINVALID                       00000004
SCANIP                            00000007
SCANLADR                          00000F49
SCANLADR0                         00000000
SCANLADR1                         00000001
SCANLADR10                        00000002
SCANLADR11                        00000003
SCANLADR12                        00000004
SCANLADR13                        00000005
SCANLADR14                        00000006
SCANLADR15                        00000007
SCANLADR16                        00000000
SCANLADR17                        00000001
SCANLADR18                        00000002
MPASM 5.77  /HOME/SCOTT/MPLABXPROJECTS/BATTL   8-10-2018  22:42:13         PAGE 76


SYMBOL TABLE
  LABEL                             VALUE 

SCANLADR19                        00000003
SCANLADR2                         00000002
SCANLADR20                        00000004
SCANLADR21                        00000005
SCANLADR3                         00000003
SCANLADR4                         00000004
SCANLADR5                         00000005
SCANLADR6                         00000006
SCANLADR7                         00000007
SCANLADR8                         00000000
SCANLADR9                         00000001
SCANLADRH                         00000F4A
SCANLADRL                         00000F49
SCANLADRU                         00000F4B
SCANMD                            00000003
SCANMODE0                         00000000
SCANMODE1                         00000001
SCANTRIG                          00000F50
SCANTSEL0                         00000000
SCANTSEL1                         00000001
SCANTSEL2                         00000002
SCANTSEL3                         00000003
SCIE                              00000005
SCKP                              00000004
SDAHT                             00000003
SEL0                              00000000
SEL1                              00000001
SEL2                              00000002
SEL3                              00000003
SENDB                             00000003
SEN_SSP1CON2                      00000000
SEN_WDTCON0                       00000000
SEN_ZCDCON                        00000007
SHFT0                             00000000
SHFT1                             00000001
SHFT10                            00000002
SHFT11                            00000003
SHFT12                            00000004
SHFT13                            00000005
SHFT14                            00000006
SHFT15                            00000007
SHFT2                             00000002
SHFT3                             00000003
SHFT4                             00000004
SHFT5                             00000005
SHFT6                             00000006
SHFT7                             00000007
SHFT8                             00000000
SHFT9                             00000001
SHIFTM                            00000001
SHUTDOWN                          00000007
SLRA0                             00000000
SLRA1                             00000001
MPASM 5.77  /HOME/SCOTT/MPLABXPROJECTS/BATTL   8-10-2018  22:42:13         PAGE 77


SYMBOL TABLE
  LABEL                             VALUE 

SLRA2                             00000002
SLRA3                             00000003
SLRA4                             00000004
SLRA5                             00000005
SLRA6                             00000006
SLRA7                             00000007
SLRB0                             00000000
SLRB1                             00000001
SLRB2                             00000002
SLRB3                             00000003
SLRB4                             00000004
SLRB5                             00000005
SLRB6                             00000006
SLRB7                             00000007
SLRC0                             00000000
SLRC1                             00000001
SLRC2                             00000002
SLRC3                             00000003
SLRC4                             00000004
SLRC5                             00000005
SLRC6                             00000006
SLRC7                             00000007
SLRCONA                           00000F0E
SLRCONB                           00000F16
SLRCONC                           00000F1E
SMP                               00000007
SOR                               00000003
SOSCEN                            00000003
SOSCPWR                           00000006
SP0                               00000000
SP1                               00000001
SP1BRG                            00000F9B
SP1BRGH                           00000F9C
SP1BRGL                           00000F9B
SP2                               00000002
SP3                               00000003
SP4                               00000004
SP5                               00000005
SPBRG                             00000F9B
SPBRG1                            00000F9B
SPBRGH                            00000F9C
SPBRGH1                           00000F9C
SPBRGL                            00000F9B
SPEN                              00000007
SRCS0                             00000000
SRCS1                             00000001
SRCS2                             00000002
SRCS3                             00000003
SREN                              00000005
SSP1ADD                           00000F93
SSP1BUF                           00000F92
SSP1CLKPPS                        00000EB7
SSP1CON1                          00000F96
MPASM 5.77  /HOME/SCOTT/MPLABXPROJECTS/BATTL   8-10-2018  22:42:13         PAGE 78


SYMBOL TABLE
  LABEL                             VALUE 

SSP1CON2                          00000F97
SSP1CON3                          00000F98
SSP1DATPPS                        00000EB8
SSP1IE                            00000000
SSP1IF                            00000000
SSP1IP                            00000000
SSP1MSK                           00000F94
SSP1SSPPS                         00000EB9
SSP1STAT                          00000F95
SSPCLKPPS                         00000EB7
SSPDATPPS                         00000EB8
SSPEN                             00000005
SSPIE                             00000000
SSPIF                             00000000
SSPIP                             00000000
SSPM0                             00000000
SSPM1                             00000001
SSPM2                             00000002
SSPM3                             00000003
SSPOV                             00000006
SSPSSPPS                          00000EB9
START                             000000A2
STATE                             00000002
STATUS                            00000FD8
STKOVF                            00000007
STKPTR                            00000FFC
STKPTR0                           00000000
STKPTR1                           00000001
STKPTR2                           00000002
STKPTR3                           00000003
STKPTR4                           00000004
STKPTR5                           00000005
STKUNF                            00000006
STRA                              00000000
STRB                              00000001
STRC                              00000002
STRD                              00000003
SWDTEN                            00000000
SYNC_CM1CON0                      00000000
SYNC_CM2CON0                      00000000
SYNC_TX1STA                       00000004
SYNC_TXSTA                        00000004
SYNC_TXSTA1                       00000004
SYSCMD                            00000007
T016BIT                           00000004
T0ASYNC                           00000004
T0CKIPPS                          00000EA4
T0CKPS0                           00000000
T0CKPS1                           00000001
T0CKPS2                           00000002
T0CKPS3                           00000003
T0CON0                            00000FD5
T0CON1                            00000FD6
MPASM 5.77  /HOME/SCOTT/MPLABXPROJECTS/BATTL   8-10-2018  22:42:13         PAGE 79


SYMBOL TABLE
  LABEL                             VALUE 

T0CS0                             00000005
T0CS1                             00000006
T0CS2                             00000007
T0EN                              00000007
T0OUT                             00000005
T0OUTPS0                          00000000
T0OUTPS1                          00000001
T0OUTPS2                          00000002
T0OUTPS3                          00000003
T0PR0                             00000000
T0PR1                             00000001
T0PR2                             00000002
T0PR3                             00000003
T0PR4                             00000004
T0PR5                             00000005
T0PR6                             00000006
T0PR7                             00000007
T0PS0                             00000000
T0PS1                             00000001
T0PS2                             00000002
T0PS3                             00000003
T1CKIPPS                          00000EA5
T1CKPS0                           00000004
T1CKPS1                           00000005
T1CLK                             00000FD2
T1CON                             00000FCF
T1CS0                             00000000
T1CS1                             00000001
T1CS2                             00000002
T1CS3                             00000003
T1GATE                            00000FD1
T1GCON                            00000FD0
T1GE                              00000007
T1GGO                             00000003
T1GGO_NOT_DONE                    00000003
T1GPOL                            00000006
T1GPPS                            00000EA6
T1GSPM                            00000004
T1GSS0                            00000000
T1GSS1                            00000001
T1GSS2                            00000002
T1GSS3                            00000003
T1GTM                             00000005
T1GVAL                            00000002
T1RD16                            00000001
T2CKPOL                           00000006
T2CKPS0                           00000004
T2CKPS1                           00000005
T2CKPS2                           00000006
T2CKSYNC                          00000005
T2CLK                             00000FBF
T2CLKCON                          00000FBF
T2CON                             00000FBD
MPASM 5.77  /HOME/SCOTT/MPLABXPROJECTS/BATTL   8-10-2018  22:42:13         PAGE 80


SYMBOL TABLE
  LABEL                             VALUE 

T2CS0                             00000000
T2CS1                             00000001
T2CS2                             00000002
T2CS3                             00000003
T2HLT                             00000FBE
T2INPPS                           00000EAB
T2MODE0                           00000000
T2MODE1                           00000001
T2MODE2                           00000002
T2MODE3                           00000003
T2MODE4                           00000004
T2ON                              00000007
T2OUTPS0                          00000000
T2OUTPS1                          00000001
T2OUTPS2                          00000002
T2OUTPS3                          00000003
T2PR                              00000FBC
T2PSYNC                           00000007
T2RSEL0                           00000000
T2RSEL1                           00000001
T2RSEL2                           00000002
T2RSEL3                           00000003
T2RST                             00000FC0
T2TMR                             00000FBB
T3CKIPPS                          00000EA7
T3CKPS0                           00000004
T3CKPS1                           00000005
T3CLK                             00000FCC
T3CON                             00000FC9
T3CS0                             00000000
T3CS1                             00000001
T3CS2                             00000002
T3CS3                             00000003
T3GATE                            00000FCB
T3GCON                            00000FCA
T3GE                              00000007
T3GGO                             00000003
T3GGO_NOT_DONE                    00000003
T3GPOL                            00000006
T3GPPS                            00000EA8
T3GSPM                            00000004
T3GSS0                            00000000
T3GSS1                            00000001
T3GSS2                            00000002
T3GSS3                            00000003
T3GTM                             00000005
T3GVAL                            00000002
T3RD16                            00000001
T4CKPOL                           00000006
T4CKPS0                           00000004
T4CKPS1                           00000005
T4CKPS2                           00000006
T4CKSYNC                          00000005
MPASM 5.77  /HOME/SCOTT/MPLABXPROJECTS/BATTL   8-10-2018  22:42:13         PAGE 81


SYMBOL TABLE
  LABEL                             VALUE 

T4CLK                             00000FB9
T4CLKCON                          00000FB9
T4CON                             00000FB7
T4CS0                             00000000
T4CS1                             00000001
T4CS2                             00000002
T4CS3                             00000003
T4HLT                             00000FB8
T4INPPS                           00000EAC
T4MODE0                           00000000
T4MODE1                           00000001
T4MODE2                           00000002
T4MODE3                           00000003
T4MODE4                           00000004
T4ON                              00000007
T4OUTPS0                          00000000
T4OUTPS1                          00000001
T4OUTPS2                          00000002
T4OUTPS3                          00000003
T4PR                              00000FB6
T4PSYNC                           00000007
T4RSEL0                           00000000
T4RSEL1                           00000001
T4RSEL2                           00000002
T4RSEL3                           00000003
T4RST                             00000FBA
T4TMR                             00000FB5
T5CKIPPS                          00000EA9
T5CKPS0                           00000004
T5CKPS1                           00000005
T5CLK                             00000FC6
T5CON                             00000FC3
T5CS0                             00000000
T5CS1                             00000001
T5CS2                             00000002
T5CS3                             00000003
T5GATE                            00000FC5
T5GCON                            00000FC4
T5GE                              00000007
T5GGO                             00000003
T5GGO_NOT_DONE                    00000003
T5GPOL                            00000006
T5GPPS                            00000EAA
T5GSPM                            00000004
T5GSS0                            00000000
T5GSS1                            00000001
T5GSS2                            00000002
T5GSS3                            00000003
T5GTM                             00000005
T5GVAL                            00000002
T5RD16                            00000001
T6CKPOL                           00000006
T6CKPS0                           00000004
MPASM 5.77  /HOME/SCOTT/MPLABXPROJECTS/BATTL   8-10-2018  22:42:13         PAGE 82


SYMBOL TABLE
  LABEL                             VALUE 

T6CKPS1                           00000005
T6CKPS2                           00000006
T6CKSYNC                          00000005
T6CLK                             00000FB3
T6CLKCON                          00000FB3
T6CON                             00000FB1
T6CS0                             00000000
T6CS1                             00000001
T6CS2                             00000002
T6CS3                             00000003
T6HLT                             00000FB2
T6INPPS                           00000EAD
T6MODE0                           00000000
T6MODE1                           00000001
T6MODE2                           00000002
T6MODE3                           00000003
T6MODE4                           00000004
T6ON                              00000007
T6OUTPS0                          00000000
T6OUTPS1                          00000001
T6OUTPS2                          00000002
T6OUTPS3                          00000003
T6PR                              00000FB0
T6PSYNC                           00000007
T6RSEL0                           00000000
T6RSEL1                           00000001
T6RSEL2                           00000002
T6RSEL3                           00000003
T6RST                             00000FB4
T6TMR                             00000FAF
TABLAT                            00000FF5
TBLPTR                            00000FF6
TBLPTRH                           00000FF7
TBLPTRL                           00000FF6
TBLPTRU                           00000FF8
TMR0                              00000FD3
TMR0H                             00000FD4
TMR0H0                            00000000
TMR0H1                            00000001
TMR0H2                            00000002
TMR0H3                            00000003
TMR0H4                            00000004
TMR0H5                            00000005
TMR0H6                            00000006
TMR0H7                            00000007
TMR0IE                            00000005
TMR0IF                            00000005
TMR0IP                            00000005
TMR0L                             00000FD3
TMR0L0                            00000000
TMR0L1                            00000001
TMR0L2                            00000002
TMR0L3                            00000003
MPASM 5.77  /HOME/SCOTT/MPLABXPROJECTS/BATTL   8-10-2018  22:42:13         PAGE 83


SYMBOL TABLE
  LABEL                             VALUE 

TMR0L4                            00000004
TMR0L5                            00000005
TMR0L6                            00000006
TMR0L7                            00000007
TMR0MD                            00000000
TMR1                              00000FCD
TMR10                             00000000
TMR11                             00000001
TMR110                            00000002
TMR111                            00000003
TMR112                            00000004
TMR113                            00000005
TMR114                            00000006
TMR115                            00000007
TMR12                             00000002
TMR13                             00000003
TMR14                             00000004
TMR15                             00000005
TMR16                             00000006
TMR17                             00000007
TMR18                             00000000
TMR19                             00000001
TMR1CLK                           00000FD2
TMR1GATE                          00000FD1
TMR1GIE                           00000000
TMR1GIF                           00000000
TMR1GIP                           00000000
TMR1H                             00000FCE
TMR1H0                            00000000
TMR1H1                            00000001
TMR1H2                            00000002
TMR1H3                            00000003
TMR1H4                            00000004
TMR1H5                            00000005
TMR1H6                            00000006
TMR1H7                            00000007
TMR1IE                            00000000
TMR1IF                            00000000
TMR1IP                            00000000
TMR1L                             00000FCD
TMR1L0                            00000000
TMR1L1                            00000001
TMR1L2                            00000002
TMR1L3                            00000003
TMR1L4                            00000004
TMR1L5                            00000005
TMR1L6                            00000006
TMR1L7                            00000007
TMR1MD                            00000001
TMR1ON                            00000000
TMR1THRESH                        000000C3
TMR2                              00000FBB
TMR2IE                            00000001
MPASM 5.77  /HOME/SCOTT/MPLABXPROJECTS/BATTL   8-10-2018  22:42:13         PAGE 84


SYMBOL TABLE
  LABEL                             VALUE 

TMR2IF                            00000001
TMR2IP                            00000001
TMR2MD                            00000002
TMR2ON                            00000007
TMR3                              00000FC7
TMR30                             00000000
TMR31                             00000001
TMR310                            00000002
TMR311                            00000003
TMR312                            00000004
TMR313                            00000005
TMR314                            00000006
TMR315                            00000007
TMR32                             00000002
TMR33                             00000003
TMR34                             00000004
TMR35                             00000005
TMR36                             00000006
TMR37                             00000007
TMR38                             00000000
TMR39                             00000001
TMR3CLK                           00000FCC
TMR3GATE                          00000FCB
TMR3GIE                           00000001
TMR3GIF                           00000001
TMR3GIP                           00000001
TMR3H                             00000FC8
TMR3H0                            00000000
TMR3H1                            00000001
TMR3H2                            00000002
TMR3H3                            00000003
TMR3H4                            00000004
TMR3H5                            00000005
TMR3H6                            00000006
TMR3H7                            00000007
TMR3IE                            00000002
TMR3IF                            00000002
TMR3IP                            00000002
TMR3L                             00000FC7
TMR3L0                            00000000
TMR3L1                            00000001
TMR3L2                            00000002
TMR3L3                            00000003
TMR3L4                            00000004
TMR3L5                            00000005
TMR3L6                            00000006
TMR3L7                            00000007
TMR3MD                            00000003
TMR3ON                            00000000
TMR4                              00000FB5
TMR4IE                            00000003
TMR4IF                            00000003
TMR4IP                            00000003
MPASM 5.77  /HOME/SCOTT/MPLABXPROJECTS/BATTL   8-10-2018  22:42:13         PAGE 85


SYMBOL TABLE
  LABEL                             VALUE 

TMR4MD                            00000004
TMR4ON                            00000007
TMR5                              00000FC1
TMR50                             00000000
TMR51                             00000001
TMR510                            00000002
TMR511                            00000003
TMR512                            00000004
TMR513                            00000005
TMR514                            00000006
TMR515                            00000007
TMR52                             00000002
TMR53                             00000003
TMR54                             00000004
TMR55                             00000005
TMR56                             00000006
TMR57                             00000007
TMR58                             00000000
TMR59                             00000001
TMR5CLK                           00000FC6
TMR5GATE                          00000FC5
TMR5GIE                           00000002
TMR5GIF                           00000002
TMR5GIP                           00000002
TMR5H                             00000FC2
TMR5H0                            00000000
TMR5H1                            00000001
TMR5H2                            00000002
TMR5H3                            00000003
TMR5H4                            00000004
TMR5H5                            00000005
TMR5H6                            00000006
TMR5H7                            00000007
TMR5IE                            00000004
TMR5IF                            00000004
TMR5IP                            00000004
TMR5L                             00000FC1
TMR5L0                            00000000
TMR5L1                            00000001
TMR5L2                            00000002
TMR5L3                            00000003
TMR5L4                            00000004
TMR5L5                            00000005
TMR5L6                            00000006
TMR5L7                            00000007
TMR5MD                            00000005
TMR5ON                            00000000
TMR6                              00000FAF
TMR6IE                            00000005
TMR6IF                            00000005
TMR6IP                            00000005
TMR6MD                            00000006
TMR6ON                            00000007
MPASM 5.77  /HOME/SCOTT/MPLABXPROJECTS/BATTL   8-10-2018  22:42:13         PAGE 86


SYMBOL TABLE
  LABEL                             VALUE 

TO                                00000006
TOS                               00000FFD
TOSH                              00000FFE
TOSL                              00000FFD
TOSU                              00000FFF
TRISA                             00000F88
TRISA0                            00000000
TRISA1                            00000001
TRISA2                            00000002
TRISA3                            00000003
TRISA4                            00000004
TRISA5                            00000005
TRISA6                            00000006
TRISA7                            00000007
TRISB                             00000F89
TRISB0                            00000000
TRISB1                            00000001
TRISB2                            00000002
TRISB3                            00000003
TRISB4                            00000004
TRISB5                            00000005
TRISB6                            00000006
TRISB7                            00000007
TRISC                             00000F8A
TRISC0                            00000000
TRISC1                            00000001
TRISC2                            00000002
TRISC3                            00000003
TRISC4                            00000004
TRISC5                            00000005
TRISC6                            00000006
TRISC7                            00000007
TRMT                              00000001
TSEL0                             00000000
TSEL1                             00000001
TSEL2                             00000002
TSEL3                             00000003
TSEN                              00000005
TSRNG                             00000004
TUN0                              00000000
TUN1                              00000001
TUN2                              00000002
TUN3                              00000003
TUN4                              00000004
TUN5                              00000005
TX1IF                             00000004
TX1PPS                            00000EB6
TX1REG                            00000F9A
TX1STA                            00000F9E
TX9                               00000006
TX9D                              00000000
TXEN                              00000005
TXIE                              00000004
MPASM 5.77  /HOME/SCOTT/MPLABXPROJECTS/BATTL   8-10-2018  22:42:13         PAGE 87


SYMBOL TABLE
  LABEL                             VALUE 

TXIF                              00000004
TXIP                              00000004
TXPPS                             00000EB6
TXREG                             00000F9A
TXREG1                            00000F9A
TXSTA                             00000F9E
TXSTA1                            00000F9E
UA                                00000001
UART1MD                           00000006
UPDN                              00000000
VREGCON                           00000EDF
VREGPM0                           00000000
VREGPM1                           00000001
W                                 00000000
WCOL                              00000007
WDTCON0                           00000ED2
WDTCON1                           00000ED3
WDTCS0                            00000004
WDTCS1                            00000005
WDTCS2                            00000006
WDTPS0                            00000001
WDTPS1                            00000002
WDTPS2                            00000003
WDTPS3                            00000004
WDTPS4                            00000005
WDTPSCNT0                         00000000
WDTPSCNT1                         00000001
WDTPSCNT10                        00000002
WDTPSCNT11                        00000003
WDTPSCNT12                        00000004
WDTPSCNT13                        00000005
WDTPSCNT14                        00000006
WDTPSCNT15                        00000007
WDTPSCNT16                        00000000
WDTPSCNT17                        00000001
WDTPSCNT2                         00000002
WDTPSCNT3                         00000003
WDTPSCNT4                         00000004
WDTPSCNT5                         00000005
WDTPSCNT6                         00000006
WDTPSCNT7                         00000007
WDTPSCNT8                         00000000
WDTPSCNT9                         00000001
WDTPSH                            00000ED5
WDTPSL                            00000ED4
WDTSEN                            00000000
WDTSTATE                          00000002
WDTTMR                            00000ED6
WDTTMR0                           00000003
WDTTMR1                           00000004
WDTTMR2                           00000005
WDTTMR3                           00000006
WDTTMR4                           00000007
MPASM 5.77  /HOME/SCOTT/MPLABXPROJECTS/BATTL   8-10-2018  22:42:13         PAGE 88


SYMBOL TABLE
  LABEL                             VALUE 

WDTWINDOW0                        00000000
WDTWINDOW1                        00000001
WDTWINDOW2                        00000002
WDTWV                             00000005
WINDOW0                           00000000
WINDOW1                           00000001
WINDOW2                           00000002
WPUA                              00000F10
WPUA0                             00000000
WPUA1                             00000001
WPUA2                             00000002
WPUA3                             00000003
WPUA4                             00000004
WPUA5                             00000005
WPUA6                             00000006
WPUA7                             00000007
WPUB                              00000F18
WPUB0                             00000000
WPUB1                             00000001
WPUB2                             00000002
WPUB3                             00000003
WPUB4                             00000004
WPUB5                             00000005
WPUB6                             00000006
WPUB7                             00000007
WPUC                              00000F20
WPUC0                             00000000
WPUC1                             00000001
WPUC2                             00000002
WPUC3                             00000003
WPUC4                             00000004
WPUC5                             00000005
WPUC6                             00000006
WPUC7                             00000007
WPUE                              00000F2D
WPUE3                             00000003
WR                                00000001
WREG                              00000FE8
WREN                              00000002
WRERR                             00000003
WUE                               00000001
X1                                00000001
X10                               00000002
X11                               00000003
X12                               00000004
X13                               00000005
X14                               00000006
X15                               00000007
X2                                00000002
X3                                00000003
X4                                00000004
X5                                00000005
X6                                00000006
MPASM 5.77  /HOME/SCOTT/MPLABXPROJECTS/BATTL   8-10-2018  22:42:13         PAGE 89


SYMBOL TABLE
  LABEL                             VALUE 

X7                                00000007
X8                                00000000
X9                                00000001
Z                                 00000002
ZCDCON                            00000F32
ZCDIE                             00000006
ZCDIF                             00000006
ZCDINTN                           00000000
ZCDINTP                           00000001
ZCDIP                             00000006
ZCDMD                             00000000
ZCDOUT                            00000005
ZCDPOL                            00000004
ZCDSEN                            00000007
_BOREN_NOSLP_2L                   000000BF
_BOREN_OFF_2L                     0000003F
_BOREN_ON_2L                      0000007F
_BOREN_SBORDIS_2L                 000000FF
_BORV_VBOR_245_2H                 000000FE
_BORV_VBOR_270_2H                 000000FD
_BORV_VBOR_285_2H                 000000FC
_BORV_VBOR_2P45_2H                000000FF
_CLKOUTEN_OFF_1H                  000000FF
_CLKOUTEN_ON_1H                   000000FE
_CONFIG1H                         00300001
_CONFIG1L                         00300000
_CONFIG2H                         00300003
_CONFIG2L                         00300002
_CONFIG3H                         00300005
_CONFIG3L                         00300004
_CONFIG4H                         00300007
_CONFIG4L                         00300006
_CONFIG5H                         00300009
_CONFIG5L                         00300008
_CONFIG6H                         0030000B
_CONFIG6L                         0030000A
_CPD_OFF_5L                       000000FF
_CPD_ON_5L                        000000FD
_CP_OFF_5L                        000000FF
_CP_ON_5L                         000000FE
_CSWEN_OFF_1H                     000000F7
_CSWEN_ON_1H                      000000FF
_DEBUG_OFF_2H                     000000FF
_DEBUG_ON_2H                      000000DF
_DEVID1                           003FFFFE
_DEVID2                           003FFFFF
_EBTR0_OFF_6L                     000000FF
_EBTR0_ON_6L                      000000FE
_EBTR1_OFF_6L                     000000FF
_EBTR1_ON_6L                      000000FD
_EBTRB_OFF_6H                     000000FF
_EBTRB_ON_6H                      000000FD
_FCMEN_OFF_1H                     000000DF
MPASM 5.77  /HOME/SCOTT/MPLABXPROJECTS/BATTL   8-10-2018  22:42:13         PAGE 90


SYMBOL TABLE
  LABEL                             VALUE 

_FCMEN_ON_1H                      000000FF
_FEXTOSC_ECH_1L                   000000FF
_FEXTOSC_ECL_1L                   000000FD
_FEXTOSC_ECM_1L                   000000FE
_FEXTOSC_HS_1L                    000000FA
_FEXTOSC_LP_1L                    000000F8
_FEXTOSC_OFF_1L                   000000FC
_FEXTOSC_RESERVED_1L              000000FB
_FEXTOSC_XT_1L                    000000F9
_IDLOC0                           00200000
_IDLOC1                           00200001
_IDLOC10                          0020000A
_IDLOC11                          0020000B
_IDLOC12                          0020000C
_IDLOC13                          0020000D
_IDLOC14                          0020000E
_IDLOC15                          0020000F
_IDLOC2                           00200002
_IDLOC3                           00200003
_IDLOC4                           00200004
_IDLOC5                           00200005
_IDLOC6                           00200006
_IDLOC7                           00200007
_IDLOC8                           00200008
_IDLOC9                           00200009
_LPBOREN_OFF_2L                   000000FF
_LPBOREN_ON_2L                    000000DF
_LVP_OFF_4H                       000000DF
_LVP_ON_4H                        000000FF
_MCLRE_EXTMCLR_2L                 000000FF
_MCLRE_INTMCLR_2L                 000000FE
_PPS1WAY_OFF_2H                   000000F7
_PPS1WAY_ON_2H                    000000FF
_PWRTE_OFF_2L                     000000FF
_PWRTE_ON_2L                      000000FD
_RSTOSC_EXTOSC_1L                 000000FF
_RSTOSC_EXTOSC_4PLL_1L            000000AF
_RSTOSC_HFINTOSC_1MHZ_1L          000000EF
_RSTOSC_HFINTOSC_64MHZ_1L         0000008F
_RSTOSC_LFINTOSC_1L               000000DF
_RSTOSC_RESERVED_1_1L             0000009F
_RSTOSC_RESERVED_2_1L             000000BF
_RSTOSC_SOSC_1L                   000000CF
_SCANE_OFF_4H                     000000EF
_SCANE_ON_4H                      000000FF
_STVREN_OFF_2H                    000000EF
_STVREN_ON_2H                     000000FF
_WDTCCS_HFINTOSC_3H               000000CF
_WDTCCS_LFINTOSC_3H               000000C7
_WDTCCS_SC_3H                     000000FF
_WDTCPS_WDTCPS_0_3L               000000E0
_WDTCPS_WDTCPS_10_3L              000000EA
_WDTCPS_WDTCPS_11_3L              000000EB
MPASM 5.77  /HOME/SCOTT/MPLABXPROJECTS/BATTL   8-10-2018  22:42:13         PAGE 91


SYMBOL TABLE
  LABEL                             VALUE 

_WDTCPS_WDTCPS_12_3L              000000EC
_WDTCPS_WDTCPS_13_3L              000000ED
_WDTCPS_WDTCPS_14_3L              000000EE
_WDTCPS_WDTCPS_15_3L              000000EF
_WDTCPS_WDTCPS_16_3L              000000F0
_WDTCPS_WDTCPS_17_3L              000000F1
_WDTCPS_WDTCPS_18_3L              000000F2
_WDTCPS_WDTCPS_19_3L              000000F3
_WDTCPS_WDTCPS_1_3L               000000E1
_WDTCPS_WDTCPS_20_3L              000000F4
_WDTCPS_WDTCPS_21_3L              000000F5
_WDTCPS_WDTCPS_22_3L              000000F6
_WDTCPS_WDTCPS_23_3L              000000F7
_WDTCPS_WDTCPS_24_3L              000000F8
_WDTCPS_WDTCPS_25_3L              000000F9
_WDTCPS_WDTCPS_26_3L              000000FA
_WDTCPS_WDTCPS_27_3L              000000FB
_WDTCPS_WDTCPS_28_3L              000000FC
_WDTCPS_WDTCPS_29_3L              000000FD
_WDTCPS_WDTCPS_2_3L               000000E2
_WDTCPS_WDTCPS_30_3L              000000FE
_WDTCPS_WDTCPS_31_3L              000000FF
_WDTCPS_WDTCPS_3_3L               000000E3
_WDTCPS_WDTCPS_4_3L               000000E4
_WDTCPS_WDTCPS_5_3L               000000E5
_WDTCPS_WDTCPS_6_3L               000000E6
_WDTCPS_WDTCPS_7_3L               000000E7
_WDTCPS_WDTCPS_8_3L               000000E8
_WDTCPS_WDTCPS_9_3L               000000E9
_WDTCWS_WDTCWS_0_3H               000000F8
_WDTCWS_WDTCWS_1_3H               000000F9
_WDTCWS_WDTCWS_2_3H               000000FA
_WDTCWS_WDTCWS_3_3H               000000FB
_WDTCWS_WDTCWS_4_3H               000000FC
_WDTCWS_WDTCWS_5_3H               000000FD
_WDTCWS_WDTCWS_6_3H               000000FE
_WDTCWS_WDTCWS_7_3H               000000FF
_WDTE_NSLEEP_3L                   000000DF
_WDTE_OFF_3L                      0000009F
_WDTE_ON_3L                       000000FF
_WDTE_SWDTEN_3L                   000000BF
_WRT0_OFF_4L                      000000FF
_WRT0_ON_4L                       000000FE
_WRT1_OFF_4L                      000000FF
_WRT1_ON_4L                       000000FD
_WRTB_OFF_4H                      000000FF
_WRTB_ON_4H                       000000FD
_WRTC_OFF_4H                      000000FF
_WRTC_ON_4H                       000000FE
_WRTD_OFF_4H                      000000FF
_WRTD_ON_4H                       000000FB
_XINST_OFF_2H                     000000FF
_XINST_ON_2H                      0000007F
MPASM 5.77  /HOME/SCOTT/MPLABXPROJECTS/BATTL   8-10-2018  22:42:13         PAGE 92


SYMBOL TABLE
  LABEL                             VALUE 

_ZCD_OFF_2H                       000000FF
_ZCD_ON_2H                        000000FB
__18F24K40                        00000001
amplitude                         00000026
arrpointer                        000000C8
backporch                         000001FE
backporchvert                     00000220
blanking                          00000358
blanking1                         000004F2
branchisr                         0000003A
byte1                             00000012
byte2                             00000013
byte3                             00000014
cell                              00000017
clear                             00000638
clearcomp                         00000922
clearcursor                       0000067E
clearoffsets                      000009BC
clearparity                       0000032A
clearplayer                       0000090C
clrcomploop                       0000092C
clroffsetcnt                      00000020
clroffsetloop                     000009C6
clrplyrloop                       00000916
comploopcnt1                      0000070A
comploopcnt2                      00000730
complr                            00000742
complrloop1                       00000780
complrloop2                       00000798
compships                         00000000
count                             00000005
count1                            00000006
count2                            00000007
count5                            00000008
cursorx                           00000015
cursory                           00000016
delay                             0000022A
delay1                            00000262
delaystart                        0000022E
direction                         00000011
dispplyrships                     0000001A
dispshipfrmcnt                    0000001B
drawimage                         00000348
drawmessage                       000004E8
dutycycle                         00000025
endcomploop                       000007A2
endline                           000005B8
endlinecont                       000005CE
endlinecont1                      000005D8
endplyrloop                       000008BE
finishsetdata                     000002A0
framecount                        0000000F
framecountnotzero                 00000434
MPASM 5.77  /HOME/SCOTT/MPLABXPROJECTS/BATTL   8-10-2018  22:42:13         PAGE 93


SYMBOL TABLE
  LABEL                             VALUE 

gameprocess                       00000390
gap                               000004DE
getcount                          00000020
getimage                          0000004C
getshipsize                       00000948
gssnot2                           00000988
gssnot3                           00000978
gssnot4                           00000968
gssnot5                           00000958
horizequal                        000005B0
horizline                         000001E6
incfsr1h                          000009B4
incfsrh                           00000938
incfsrhcont                       000009BA
index                             0000000A
init                              000000E6
initcomp                          000006A4
initcomploop                      000006AA
initplayer                        000007AA
initplayerloop                    000007B0
linemod                           00000009
linemodnoteight                   0000062E
loadpwm                           000020A6
mbutton                           00000022
mdata                             0000000B
mdata1                            0000000C
mdone                             00000018
messageloop                       00000504
messagepointer                    00000023
moddone                           000008EA
modstart                          000008E0
mousehandledone                   000004DC
mouseloop                         000001C8
moverand                          000008DC
nobutton                          000003FC
noclrmlinemod                     0000053C
nodecx                            0000047E
nodecy                            000004C0
noextramod                        000008F2
noincfrm                          000005AE
noincx                            00000460
noincy                            000004A2
nooffset                          00000584
noprcsmouse                       000004C8
nosetrand                         0000090A
notry                             000009F4
noudoffset                        000003E6
noudoffset1                       000003D4
noupdateduty                      000003BE
nto                               0000093E
offsettable                       00000027
parity                            00000004
playerships                       00000064
MPASM 5.77  /HOME/SCOTT/MPLABXPROJECTS/BATTL   8-10-2018  22:42:13         PAGE 94


SYMBOL TABLE
  LABEL                             VALUE 

plyrloopcnt1                      00000810
plyrloopcnt2                      0000083A
plyrlr                            00000854
plyrlrloop1                       00000892
plyrlrloop2                       000008AE
plyrmoveflag                      00000019
rand                              0000001C
randlsb0                          000008D8
randmod                           0000001D
random                            000008C6
rbwaithigh1                       000002F6
rbwaithigh2                       00000312
rbwaithigh3                       0000031A
rbwaithigh5                       00000324
rbwaitlow1                        000002FA
rbwaitlow2                        00000316
rbwaitlow3                        00000320
rbwaitlow4                        000002E2
readbyte                          000002E0
readloop                          000002F4
seed                              000008F4
sendcommand                       00000250
senddata                          00000296
setcursor                         00000652
setdata                           000002D4
setfsr1                           00000990
setmdata1                         000002DA
shipcont                          000007C2
shipcont1                         000006BC
shipcstrt                         000006AE
shippstrt                         000007B4
shipsize                          00000010
spitchar                          000005DA
spitcount                         0000000E
spnotzero                         00000636
state                             0000000D
syncspi                           000005F0
syncspim                          0000051C
testmessage                       00002000
tmp                               00000024
turnoffled                        0000064C
turnonled                         00000646
udoffsetcnt                       00000021
udoffsetloop                      000009E0
updateoffsets                     000009DA
vertline                          00000208
vsync                             0000053E
waitadc                           000008F8
waitboth1                         000002CA
waitclocklow4                     000002C6
waithigh10                        00000288
waithigh2                         000002A4
waithigh3                         000002B8
MPASM 5.77  /HOME/SCOTT/MPLABXPROJECTS/BATTL   8-10-2018  22:42:13         PAGE 95


SYMBOL TABLE
  LABEL                             VALUE 

waitlow1                          00000284
waitlow10                         0000028C
waitlow2                          000002AA
waitlow3                          000002BC
waitlow4                          000002C2
waitovf                           00000234
x                                 0000001E
xdir                              00000000
xleft                             00000412
xpos                              00000001
y                                 0000001F
ydir                              00000002
ynoup                             00000428
ypos                              00000003

Errors   :     0
Warnings :    42 reported,     0 suppressed
Messages :     0 reported,     0 suppressed

